

Microchip Technology PIC LITE Macro Assembler V1.31 build 56723 
                                                                                               Mon Mar 23 16:34:55 2015

Microchip Technology Omniscient Code Generator (Lite mode) build 56723
     1                           	processor	16LF1939
     2                           	opt	pw 120
     3                           	opt	lm
     4                           	psect	idataBANK0l,global,class=CODE,delta=2
     5                           	psect	idataBANK0h,global,class=CODE,delta=2
     6                           	psect	stringtext,global,reloc=256,class=STRCODE,delta=2
     7                           	psect	cinit,global,class=CODE,merge=1,delta=2
     8                           	psect	bssCOMMON,global,class=COMMON,space=1,delta=1
     9                           	psect	bssBANK0h,global,class=BANK0,space=1,delta=1
    10                           	psect	dataBANK0h,global,class=BANK0,space=1,delta=1
    11                           	psect	bssBANK0l,global,class=BANK0,space=1,delta=1
    12                           	psect	dataBANK0l,global,class=BANK0,space=1,delta=1
    13                           	psect	clrtext,global,class=CODE,delta=2
    14                           	psect	cstackCOMMON,global,class=COMMON,space=1,delta=1
    15                           	psect	cstackBANK0h,global,class=BANK0,space=1,delta=1
    16                           	psect	maintext,global,class=CODE,merge=1,split=1,delta=2
    17                           	psect	text1,local,class=CODE,merge=1,delta=2
    18                           	psect	text2,local,class=CODE,merge=1,delta=2
    19                           	psect	text3,local,class=CODE,merge=1,delta=2
    20                           	psect	text4,local,class=CODE,merge=1,delta=2
    21                           	psect	text5,local,class=CODE,merge=1,delta=2
    22                           	psect	text6,local,class=CODE,merge=1,delta=2
    23                           	psect	text7,local,class=CODE,merge=1,delta=2
    24                           	psect	text8,local,class=CODE,merge=1,delta=2
    25                           	psect	text9,local,class=CODE,merge=1,delta=2
    26                           	psect	intentry,global,class=CODE,delta=2
    27                           	psect	text11,local,class=CODE,merge=1,delta=2
    28                           	psect	text12,local,class=CODE,merge=1,delta=2
    29                           	psect	text13,local,class=CODE,merge=1,delta=2
    30                           	psect	text14,local,class=CODE,merge=1,delta=2
    31                           	psect	text15,local,class=CODE,merge=1,delta=2
    32                           	psect	text16,local,class=CODE,merge=1,delta=2
    33                           	psect	text17,local,class=CODE,merge=1,delta=2
    34                           	psect	text18,local,class=CODE,merge=1,delta=2
    35                           	psect	text19,local,class=CODE,merge=1,delta=2
    36                           	psect	functab,global,reloc=256,class=CODE,delta=2
    37                           	dabs	1,0x1A0,2
    38                           	dabs	1,0x120,80
    39                           	dabs	1,0xA0,80
    40                           	dabs	1,0x20,1,_byte_count
    41                           	dabs	1,0x30,1,_temp
    42                           	dabs	1,0x7E,2
    43  0000                     	;# 
    44  0001                     	;# 
    45  0002                     	;# 
    46  0003                     	;# 
    47  0004                     	;# 
    48  0005                     	;# 
    49  0006                     	;# 
    50  0007                     	;# 
    51  0008                     	;# 
    52  0009                     	;# 
    53  000A                     	;# 
    54  000B                     	;# 
    55  000C                     	;# 
    56  000D                     	;# 
    57  000E                     	;# 
    58  000F                     	;# 
    59  0010                     	;# 
    60  0011                     	;# 
    61  0012                     	;# 
    62  0013                     	;# 
    63  0015                     	;# 
    64  0016                     	;# 
    65  0016                     	;# 
    66  0017                     	;# 
    67  0018                     	;# 
    68  0019                     	;# 
    69  001A                     	;# 
    70  001B                     	;# 
    71  001C                     	;# 
    72  001E                     	;# 
    73  001F                     	;# 
    74  008C                     	;# 
    75  008D                     	;# 
    76  008E                     	;# 
    77  008F                     	;# 
    78  0090                     	;# 
    79  0091                     	;# 
    80  0092                     	;# 
    81  0093                     	;# 
    82  0095                     	;# 
    83  0096                     	;# 
    84  0097                     	;# 
    85  0098                     	;# 
    86  0099                     	;# 
    87  009A                     	;# 
    88  009B                     	;# 
    89  009B                     	;# 
    90  009C                     	;# 
    91  009D                     	;# 
    92  009E                     	;# 
    93  010C                     	;# 
    94  010D                     	;# 
    95  010E                     	;# 
    96  010F                     	;# 
    97  0110                     	;# 
    98  0111                     	;# 
    99  0112                     	;# 
   100  0113                     	;# 
   101  0114                     	;# 
   102  0115                     	;# 
   103  0116                     	;# 
   104  0117                     	;# 
   105  0118                     	;# 
   106  0119                     	;# 
   107  011A                     	;# 
   108  011B                     	;# 
   109  011D                     	;# 
   110  018C                     	;# 
   111  018D                     	;# 
   112  018F                     	;# 
   113  0190                     	;# 
   114  0191                     	;# 
   115  0191                     	;# 
   116  0192                     	;# 
   117  0193                     	;# 
   118  0193                     	;# 
   119  0193                     	;# 
   120  0194                     	;# 
   121  0195                     	;# 
   122  0196                     	;# 
   123  0199                     	;# 
   124  019A                     	;# 
   125  019B                     	;# 
   126  019B                     	;# 
   127  019B                     	;# 
   128  019B                     	;# 
   129  019C                     	;# 
   130  019C                     	;# 
   131  019D                     	;# 
   132  019E                     	;# 
   133  019F                     	;# 
   134  020D                     	;# 
   135  0210                     	;# 
   136  0211                     	;# 
   137  0212                     	;# 
   138  0213                     	;# 
   139  0214                     	;# 
   140  0215                     	;# 
   141  0215                     	;# 
   142  0216                     	;# 
   143  0217                     	;# 
   144  0291                     	;# 
   145  0291                     	;# 
   146  0292                     	;# 
   147  0293                     	;# 
   148  0294                     	;# 
   149  0295                     	;# 
   150  0295                     	;# 
   151  0296                     	;# 
   152  0298                     	;# 
   153  0298                     	;# 
   154  0299                     	;# 
   155  029A                     	;# 
   156  029B                     	;# 
   157  029C                     	;# 
   158  029C                     	;# 
   159  029D                     	;# 
   160  029E                     	;# 
   161  029F                     	;# 
   162  0311                     	;# 
   163  0311                     	;# 
   164  0312                     	;# 
   165  0313                     	;# 
   166  0314                     	;# 
   167  0315                     	;# 
   168  0315                     	;# 
   169  0316                     	;# 
   170  0318                     	;# 
   171  0318                     	;# 
   172  0319                     	;# 
   173  031A                     	;# 
   174  031C                     	;# 
   175  031C                     	;# 
   176  031D                     	;# 
   177  031E                     	;# 
   178  0394                     	;# 
   179  0395                     	;# 
   180  0396                     	;# 
   181  0415                     	;# 
   182  0416                     	;# 
   183  0417                     	;# 
   184  041C                     	;# 
   185  041D                     	;# 
   186  041E                     	;# 
   187  0791                     	;# 
   188  0792                     	;# 
   189  0793                     	;# 
   190  0794                     	;# 
   191  0795                     	;# 
   192  0798                     	;# 
   193  0799                     	;# 
   194  079A                     	;# 
   195  07A0                     	;# 
   196  07A1                     	;# 
   197  07A2                     	;# 
   198  07A3                     	;# 
   199  07A4                     	;# 
   200  07A5                     	;# 
   201  07A6                     	;# 
   202  07A7                     	;# 
   203  07A8                     	;# 
   204  07A9                     	;# 
   205  07AA                     	;# 
   206  07AB                     	;# 
   207  0FE4                     	;# 
   208  0FE5                     	;# 
   209  0FE6                     	;# 
   210  0FE7                     	;# 
   211  0FE8                     	;# 
   212  0FE9                     	;# 
   213  0FEA                     	;# 
   214  0FEB                     	;# 
   215  0FED                     	;# 
   216  0FEE                     	;# 
   217  0FEF                     	;# 
   218  0000                     	;# 
   219  0001                     	;# 
   220  0002                     	;# 
   221  0003                     	;# 
   222  0004                     	;# 
   223  0005                     	;# 
   224  0006                     	;# 
   225  0007                     	;# 
   226  0008                     	;# 
   227  0009                     	;# 
   228  000A                     	;# 
   229  000B                     	;# 
   230  000C                     	;# 
   231  000D                     	;# 
   232  000E                     	;# 
   233  000F                     	;# 
   234  0010                     	;# 
   235  0011                     	;# 
   236  0012                     	;# 
   237  0013                     	;# 
   238  0015                     	;# 
   239  0016                     	;# 
   240  0016                     	;# 
   241  0017                     	;# 
   242  0018                     	;# 
   243  0019                     	;# 
   244  001A                     	;# 
   245  001B                     	;# 
   246  001C                     	;# 
   247  001E                     	;# 
   248  001F                     	;# 
   249  008C                     	;# 
   250  008D                     	;# 
   251  008E                     	;# 
   252  008F                     	;# 
   253  0090                     	;# 
   254  0091                     	;# 
   255  0092                     	;# 
   256  0093                     	;# 
   257  0095                     	;# 
   258  0096                     	;# 
   259  0097                     	;# 
   260  0098                     	;# 
   261  0099                     	;# 
   262  009A                     	;# 
   263  009B                     	;# 
   264  009B                     	;# 
   265  009C                     	;# 
   266  009D                     	;# 
   267  009E                     	;# 
   268  010C                     	;# 
   269  010D                     	;# 
   270  010E                     	;# 
   271  010F                     	;# 
   272  0110                     	;# 
   273  0111                     	;# 
   274  0112                     	;# 
   275  0113                     	;# 
   276  0114                     	;# 
   277  0115                     	;# 
   278  0116                     	;# 
   279  0117                     	;# 
   280  0118                     	;# 
   281  0119                     	;# 
   282  011A                     	;# 
   283  011B                     	;# 
   284  011D                     	;# 
   285  018C                     	;# 
   286  018D                     	;# 
   287  018F                     	;# 
   288  0190                     	;# 
   289  0191                     	;# 
   290  0191                     	;# 
   291  0192                     	;# 
   292  0193                     	;# 
   293  0193                     	;# 
   294  0193                     	;# 
   295  0194                     	;# 
   296  0195                     	;# 
   297  0196                     	;# 
   298  0199                     	;# 
   299  019A                     	;# 
   300  019B                     	;# 
   301  019B                     	;# 
   302  019B                     	;# 
   303  019B                     	;# 
   304  019C                     	;# 
   305  019C                     	;# 
   306  019D                     	;# 
   307  019E                     	;# 
   308  019F                     	;# 
   309  020D                     	;# 
   310  0210                     	;# 
   311  0211                     	;# 
   312  0212                     	;# 
   313  0213                     	;# 
   314  0214                     	;# 
   315  0215                     	;# 
   316  0215                     	;# 
   317  0216                     	;# 
   318  0217                     	;# 
   319  0291                     	;# 
   320  0291                     	;# 
   321  0292                     	;# 
   322  0293                     	;# 
   323  0294                     	;# 
   324  0295                     	;# 
   325  0295                     	;# 
   326  0296                     	;# 
   327  0298                     	;# 
   328  0298                     	;# 
   329  0299                     	;# 
   330  029A                     	;# 
   331  029B                     	;# 
   332  029C                     	;# 
   333  029C                     	;# 
   334  029D                     	;# 
   335  029E                     	;# 
   336  029F                     	;# 
   337  0311                     	;# 
   338  0311                     	;# 
   339  0312                     	;# 
   340  0313                     	;# 
   341  0314                     	;# 
   342  0315                     	;# 
   343  0315                     	;# 
   344  0316                     	;# 
   345  0318                     	;# 
   346  0318                     	;# 
   347  0319                     	;# 
   348  031A                     	;# 
   349  031C                     	;# 
   350  031C                     	;# 
   351  031D                     	;# 
   352  031E                     	;# 
   353  0394                     	;# 
   354  0395                     	;# 
   355  0396                     	;# 
   356  0415                     	;# 
   357  0416                     	;# 
   358  0417                     	;# 
   359  041C                     	;# 
   360  041D                     	;# 
   361  041E                     	;# 
   362  0791                     	;# 
   363  0792                     	;# 
   364  0793                     	;# 
   365  0794                     	;# 
   366  0795                     	;# 
   367  0798                     	;# 
   368  0799                     	;# 
   369  079A                     	;# 
   370  07A0                     	;# 
   371  07A1                     	;# 
   372  07A2                     	;# 
   373  07A3                     	;# 
   374  07A4                     	;# 
   375  07A5                     	;# 
   376  07A6                     	;# 
   377  07A7                     	;# 
   378  07A8                     	;# 
   379  07A9                     	;# 
   380  07AA                     	;# 
   381  07AB                     	;# 
   382  0FE4                     	;# 
   383  0FE5                     	;# 
   384  0FE6                     	;# 
   385  0FE7                     	;# 
   386  0FE8                     	;# 
   387  0FE9                     	;# 
   388  0FEA                     	;# 
   389  0FEB                     	;# 
   390  0FED                     	;# 
   391  0FEE                     	;# 
   392  0FEF                     	;# 
   393  0000                     	;# 
   394  0001                     	;# 
   395  0002                     	;# 
   396  0003                     	;# 
   397  0004                     	;# 
   398  0005                     	;# 
   399  0006                     	;# 
   400  0007                     	;# 
   401  0008                     	;# 
   402  0009                     	;# 
   403  000A                     	;# 
   404  000B                     	;# 
   405  000C                     	;# 
   406  000D                     	;# 
   407  000E                     	;# 
   408  000F                     	;# 
   409  0010                     	;# 
   410  0011                     	;# 
   411  0012                     	;# 
   412  0013                     	;# 
   413  0015                     	;# 
   414  0016                     	;# 
   415  0016                     	;# 
   416  0017                     	;# 
   417  0018                     	;# 
   418  0019                     	;# 
   419  001A                     	;# 
   420  001B                     	;# 
   421  001C                     	;# 
   422  001E                     	;# 
   423  001F                     	;# 
   424  008C                     	;# 
   425  008D                     	;# 
   426  008E                     	;# 
   427  008F                     	;# 
   428  0090                     	;# 
   429  0091                     	;# 
   430  0092                     	;# 
   431  0093                     	;# 
   432  0095                     	;# 
   433  0096                     	;# 
   434  0097                     	;# 
   435  0098                     	;# 
   436  0099                     	;# 
   437  009A                     	;# 
   438  009B                     	;# 
   439  009B                     	;# 
   440  009C                     	;# 
   441  009D                     	;# 
   442  009E                     	;# 
   443  010C                     	;# 
   444  010D                     	;# 
   445  010E                     	;# 
   446  010F                     	;# 
   447  0110                     	;# 
   448  0111                     	;# 
   449  0112                     	;# 
   450  0113                     	;# 
   451  0114                     	;# 
   452  0115                     	;# 
   453  0116                     	;# 
   454  0117                     	;# 
   455  0118                     	;# 
   456  0119                     	;# 
   457  011A                     	;# 
   458  011B                     	;# 
   459  011D                     	;# 
   460  018C                     	;# 
   461  018D                     	;# 
   462  018F                     	;# 
   463  0190                     	;# 
   464  0191                     	;# 
   465  0191                     	;# 
   466  0192                     	;# 
   467  0193                     	;# 
   468  0193                     	;# 
   469  0193                     	;# 
   470  0194                     	;# 
   471  0195                     	;# 
   472  0196                     	;# 
   473  0199                     	;# 
   474  019A                     	;# 
   475  019B                     	;# 
   476  019B                     	;# 
   477  019B                     	;# 
   478  019B                     	;# 
   479  019C                     	;# 
   480  019C                     	;# 
   481  019D                     	;# 
   482  019E                     	;# 
   483  019F                     	;# 
   484  020D                     	;# 
   485  0210                     	;# 
   486  0211                     	;# 
   487  0212                     	;# 
   488  0213                     	;# 
   489  0214                     	;# 
   490  0215                     	;# 
   491  0215                     	;# 
   492  0216                     	;# 
   493  0217                     	;# 
   494  0291                     	;# 
   495  0291                     	;# 
   496  0292                     	;# 
   497  0293                     	;# 
   498  0294                     	;# 
   499  0295                     	;# 
   500  0295                     	;# 
   501  0296                     	;# 
   502  0298                     	;# 
   503  0298                     	;# 
   504  0299                     	;# 
   505  029A                     	;# 
   506  029B                     	;# 
   507  029C                     	;# 
   508  029C                     	;# 
   509  029D                     	;# 
   510  029E                     	;# 
   511  029F                     	;# 
   512  0311                     	;# 
   513  0311                     	;# 
   514  0312                     	;# 
   515  0313                     	;# 
   516  0314                     	;# 
   517  0315                     	;# 
   518  0315                     	;# 
   519  0316                     	;# 
   520  0318                     	;# 
   521  0318                     	;# 
   522  0319                     	;# 
   523  031A                     	;# 
   524  031C                     	;# 
   525  031C                     	;# 
   526  031D                     	;# 
   527  031E                     	;# 
   528  0394                     	;# 
   529  0395                     	;# 
   530  0396                     	;# 
   531  0415                     	;# 
   532  0416                     	;# 
   533  0417                     	;# 
   534  041C                     	;# 
   535  041D                     	;# 
   536  041E                     	;# 
   537  0791                     	;# 
   538  0792                     	;# 
   539  0793                     	;# 
   540  0794                     	;# 
   541  0795                     	;# 
   542  0798                     	;# 
   543  0799                     	;# 
   544  079A                     	;# 
   545  07A0                     	;# 
   546  07A1                     	;# 
   547  07A2                     	;# 
   548  07A3                     	;# 
   549  07A4                     	;# 
   550  07A5                     	;# 
   551  07A6                     	;# 
   552  07A7                     	;# 
   553  07A8                     	;# 
   554  07A9                     	;# 
   555  07AA                     	;# 
   556  07AB                     	;# 
   557  0FE4                     	;# 
   558  0FE5                     	;# 
   559  0FE6                     	;# 
   560  0FE7                     	;# 
   561  0FE8                     	;# 
   562  0FE9                     	;# 
   563  0FEA                     	;# 
   564  0FEB                     	;# 
   565  0FED                     	;# 
   566  0FEE                     	;# 
   567  0FEF                     	;# 
   568  0000                     	;# 
   569  0001                     	;# 
   570  0002                     	;# 
   571  0003                     	;# 
   572  0004                     	;# 
   573  0005                     	;# 
   574  0006                     	;# 
   575  0007                     	;# 
   576  0008                     	;# 
   577  0009                     	;# 
   578  000A                     	;# 
   579  000B                     	;# 
   580  000C                     	;# 
   581  000D                     	;# 
   582  000E                     	;# 
   583  000F                     	;# 
   584  0010                     	;# 
   585  0011                     	;# 
   586  0012                     	;# 
   587  0013                     	;# 
   588  0015                     	;# 
   589  0016                     	;# 
   590  0016                     	;# 
   591  0017                     	;# 
   592  0018                     	;# 
   593  0019                     	;# 
   594  001A                     	;# 
   595  001B                     	;# 
   596  001C                     	;# 
   597  001E                     	;# 
   598  001F                     	;# 
   599  008C                     	;# 
   600  008D                     	;# 
   601  008E                     	;# 
   602  008F                     	;# 
   603  0090                     	;# 
   604  0091                     	;# 
   605  0092                     	;# 
   606  0093                     	;# 
   607  0095                     	;# 
   608  0096                     	;# 
   609  0097                     	;# 
   610  0098                     	;# 
   611  0099                     	;# 
   612  009A                     	;# 
   613  009B                     	;# 
   614  009B                     	;# 
   615  009C                     	;# 
   616  009D                     	;# 
   617  009E                     	;# 
   618  010C                     	;# 
   619  010D                     	;# 
   620  010E                     	;# 
   621  010F                     	;# 
   622  0110                     	;# 
   623  0111                     	;# 
   624  0112                     	;# 
   625  0113                     	;# 
   626  0114                     	;# 
   627  0115                     	;# 
   628  0116                     	;# 
   629  0117                     	;# 
   630  0118                     	;# 
   631  0119                     	;# 
   632  011A                     	;# 
   633  011B                     	;# 
   634  011D                     	;# 
   635  018C                     	;# 
   636  018D                     	;# 
   637  018F                     	;# 
   638  0190                     	;# 
   639  0191                     	;# 
   640  0191                     	;# 
   641  0192                     	;# 
   642  0193                     	;# 
   643  0193                     	;# 
   644  0193                     	;# 
   645  0194                     	;# 
   646  0195                     	;# 
   647  0196                     	;# 
   648  0199                     	;# 
   649  019A                     	;# 
   650  019B                     	;# 
   651  019B                     	;# 
   652  019B                     	;# 
   653  019B                     	;# 
   654  019C                     	;# 
   655  019C                     	;# 
   656  019D                     	;# 
   657  019E                     	;# 
   658  019F                     	;# 
   659  020D                     	;# 
   660  0210                     	;# 
   661  0211                     	;# 
   662  0212                     	;# 
   663  0213                     	;# 
   664  0214                     	;# 
   665  0215                     	;# 
   666  0215                     	;# 
   667  0216                     	;# 
   668  0217                     	;# 
   669  0291                     	;# 
   670  0291                     	;# 
   671  0292                     	;# 
   672  0293                     	;# 
   673  0294                     	;# 
   674  0295                     	;# 
   675  0295                     	;# 
   676  0296                     	;# 
   677  0298                     	;# 
   678  0298                     	;# 
   679  0299                     	;# 
   680  029A                     	;# 
   681  029B                     	;# 
   682  029C                     	;# 
   683  029C                     	;# 
   684  029D                     	;# 
   685  029E                     	;# 
   686  029F                     	;# 
   687  0311                     	;# 
   688  0311                     	;# 
   689  0312                     	;# 
   690  0313                     	;# 
   691  0314                     	;# 
   692  0315                     	;# 
   693  0315                     	;# 
   694  0316                     	;# 
   695  0318                     	;# 
   696  0318                     	;# 
   697  0319                     	;# 
   698  031A                     	;# 
   699  031C                     	;# 
   700  031C                     	;# 
   701  031D                     	;# 
   702  031E                     	;# 
   703  0394                     	;# 
   704  0395                     	;# 
   705  0396                     	;# 
   706  0415                     	;# 
   707  0416                     	;# 
   708  0417                     	;# 
   709  041C                     	;# 
   710  041D                     	;# 
   711  041E                     	;# 
   712  0791                     	;# 
   713  0792                     	;# 
   714  0793                     	;# 
   715  0794                     	;# 
   716  0795                     	;# 
   717  0798                     	;# 
   718  0799                     	;# 
   719  079A                     	;# 
   720  07A0                     	;# 
   721  07A1                     	;# 
   722  07A2                     	;# 
   723  07A3                     	;# 
   724  07A4                     	;# 
   725  07A5                     	;# 
   726  07A6                     	;# 
   727  07A7                     	;# 
   728  07A8                     	;# 
   729  07A9                     	;# 
   730  07AA                     	;# 
   731  07AB                     	;# 
   732  0FE4                     	;# 
   733  0FE5                     	;# 
   734  0FE6                     	;# 
   735  0FE7                     	;# 
   736  0FE8                     	;# 
   737  0FE9                     	;# 
   738  0FEA                     	;# 
   739  0FEB                     	;# 
   740  0FED                     	;# 
   741  0FEE                     	;# 
   742  0FEF                     	;# 
   743  0000                     	;# 
   744  0001                     	;# 
   745  0002                     	;# 
   746  0003                     	;# 
   747  0004                     	;# 
   748  0005                     	;# 
   749  0006                     	;# 
   750  0007                     	;# 
   751  0008                     	;# 
   752  0009                     	;# 
   753  000A                     	;# 
   754  000B                     	;# 
   755  000C                     	;# 
   756  000D                     	;# 
   757  000E                     	;# 
   758  000F                     	;# 
   759  0010                     	;# 
   760  0011                     	;# 
   761  0012                     	;# 
   762  0013                     	;# 
   763  0015                     	;# 
   764  0016                     	;# 
   765  0016                     	;# 
   766  0017                     	;# 
   767  0018                     	;# 
   768  0019                     	;# 
   769  001A                     	;# 
   770  001B                     	;# 
   771  001C                     	;# 
   772  001E                     	;# 
   773  001F                     	;# 
   774  008C                     	;# 
   775  008D                     	;# 
   776  008E                     	;# 
   777  008F                     	;# 
   778  0090                     	;# 
   779  0091                     	;# 
   780  0092                     	;# 
   781  0093                     	;# 
   782  0095                     	;# 
   783  0096                     	;# 
   784  0097                     	;# 
   785  0098                     	;# 
   786  0099                     	;# 
   787  009A                     	;# 
   788  009B                     	;# 
   789  009B                     	;# 
   790  009C                     	;# 
   791  009D                     	;# 
   792  009E                     	;# 
   793  010C                     	;# 
   794  010D                     	;# 
   795  010E                     	;# 
   796  010F                     	;# 
   797  0110                     	;# 
   798  0111                     	;# 
   799  0112                     	;# 
   800  0113                     	;# 
   801  0114                     	;# 
   802  0115                     	;# 
   803  0116                     	;# 
   804  0117                     	;# 
   805  0118                     	;# 
   806  0119                     	;# 
   807  011A                     	;# 
   808  011B                     	;# 
   809  011D                     	;# 
   810  018C                     	;# 
   811  018D                     	;# 
   812  018F                     	;# 
   813  0190                     	;# 
   814  0191                     	;# 
   815  0191                     	;# 
   816  0192                     	;# 
   817  0193                     	;# 
   818  0193                     	;# 
   819  0193                     	;# 
   820  0194                     	;# 
   821  0195                     	;# 
   822  0196                     	;# 
   823  0199                     	;# 
   824  019A                     	;# 
   825  019B                     	;# 
   826  019B                     	;# 
   827  019B                     	;# 
   828  019B                     	;# 
   829  019C                     	;# 
   830  019C                     	;# 
   831  019D                     	;# 
   832  019E                     	;# 
   833  019F                     	;# 
   834  020D                     	;# 
   835  0210                     	;# 
   836  0211                     	;# 
   837  0212                     	;# 
   838  0213                     	;# 
   839  0214                     	;# 
   840  0215                     	;# 
   841  0215                     	;# 
   842  0216                     	;# 
   843  0217                     	;# 
   844  0291                     	;# 
   845  0291                     	;# 
   846  0292                     	;# 
   847  0293                     	;# 
   848  0294                     	;# 
   849  0295                     	;# 
   850  0295                     	;# 
   851  0296                     	;# 
   852  0298                     	;# 
   853  0298                     	;# 
   854  0299                     	;# 
   855  029A                     	;# 
   856  029B                     	;# 
   857  029C                     	;# 
   858  029C                     	;# 
   859  029D                     	;# 
   860  029E                     	;# 
   861  029F                     	;# 
   862  0311                     	;# 
   863  0311                     	;# 
   864  0312                     	;# 
   865  0313                     	;# 
   866  0314                     	;# 
   867  0315                     	;# 
   868  0315                     	;# 
   869  0316                     	;# 
   870  0318                     	;# 
   871  0318                     	;# 
   872  0319                     	;# 
   873  031A                     	;# 
   874  031C                     	;# 
   875  031C                     	;# 
   876  031D                     	;# 
   877  031E                     	;# 
   878  0394                     	;# 
   879  0395                     	;# 
   880  0396                     	;# 
   881  0415                     	;# 
   882  0416                     	;# 
   883  0417                     	;# 
   884  041C                     	;# 
   885  041D                     	;# 
   886  041E                     	;# 
   887  0791                     	;# 
   888  0792                     	;# 
   889  0793                     	;# 
   890  0794                     	;# 
   891  0795                     	;# 
   892  0798                     	;# 
   893  0799                     	;# 
   894  079A                     	;# 
   895  07A0                     	;# 
   896  07A1                     	;# 
   897  07A2                     	;# 
   898  07A3                     	;# 
   899  07A4                     	;# 
   900  07A5                     	;# 
   901  07A6                     	;# 
   902  07A7                     	;# 
   903  07A8                     	;# 
   904  07A9                     	;# 
   905  07AA                     	;# 
   906  07AB                     	;# 
   907  0FE4                     	;# 
   908  0FE5                     	;# 
   909  0FE6                     	;# 
   910  0FE7                     	;# 
   911  0FE8                     	;# 
   912  0FE9                     	;# 
   913  0FEA                     	;# 
   914  0FEB                     	;# 
   915  0FED                     	;# 
   916  0FEE                     	;# 
   917  0FEF                     	;# 
   918  0000                     	;# 
   919  0001                     	;# 
   920  0002                     	;# 
   921  0003                     	;# 
   922  0004                     	;# 
   923  0005                     	;# 
   924  0006                     	;# 
   925  0007                     	;# 
   926  0008                     	;# 
   927  0009                     	;# 
   928  000A                     	;# 
   929  000B                     	;# 
   930  000C                     	;# 
   931  000D                     	;# 
   932  000E                     	;# 
   933  000F                     	;# 
   934  0010                     	;# 
   935  0011                     	;# 
   936  0012                     	;# 
   937  0013                     	;# 
   938  0015                     	;# 
   939  0016                     	;# 
   940  0016                     	;# 
   941  0017                     	;# 
   942  0018                     	;# 
   943  0019                     	;# 
   944  001A                     	;# 
   945  001B                     	;# 
   946  001C                     	;# 
   947  001E                     	;# 
   948  001F                     	;# 
   949  008C                     	;# 
   950  008D                     	;# 
   951  008E                     	;# 
   952  008F                     	;# 
   953  0090                     	;# 
   954  0091                     	;# 
   955  0092                     	;# 
   956  0093                     	;# 
   957  0095                     	;# 
   958  0096                     	;# 
   959  0097                     	;# 
   960  0098                     	;# 
   961  0099                     	;# 
   962  009A                     	;# 
   963  009B                     	;# 
   964  009B                     	;# 
   965  009C                     	;# 
   966  009D                     	;# 
   967  009E                     	;# 
   968  010C                     	;# 
   969  010D                     	;# 
   970  010E                     	;# 
   971  010F                     	;# 
   972  0110                     	;# 
   973  0111                     	;# 
   974  0112                     	;# 
   975  0113                     	;# 
   976  0114                     	;# 
   977  0115                     	;# 
   978  0116                     	;# 
   979  0117                     	;# 
   980  0118                     	;# 
   981  0119                     	;# 
   982  011A                     	;# 
   983  011B                     	;# 
   984  011D                     	;# 
   985  018C                     	;# 
   986  018D                     	;# 
   987  018F                     	;# 
   988  0190                     	;# 
   989  0191                     	;# 
   990  0191                     	;# 
   991  0192                     	;# 
   992  0193                     	;# 
   993  0193                     	;# 
   994  0193                     	;# 
   995  0194                     	;# 
   996  0195                     	;# 
   997  0196                     	;# 
   998  0199                     	;# 
   999  019A                     	;# 
  1000  019B                     	;# 
  1001  019B                     	;# 
  1002  019B                     	;# 
  1003  019B                     	;# 
  1004  019C                     	;# 
  1005  019C                     	;# 
  1006  019D                     	;# 
  1007  019E                     	;# 
  1008  019F                     	;# 
  1009  020D                     	;# 
  1010  0210                     	;# 
  1011  0211                     	;# 
  1012  0212                     	;# 
  1013  0213                     	;# 
  1014  0214                     	;# 
  1015  0215                     	;# 
  1016  0215                     	;# 
  1017  0216                     	;# 
  1018  0217                     	;# 
  1019  0291                     	;# 
  1020  0291                     	;# 
  1021  0292                     	;# 
  1022  0293                     	;# 
  1023  0294                     	;# 
  1024  0295                     	;# 
  1025  0295                     	;# 
  1026  0296                     	;# 
  1027  0298                     	;# 
  1028  0298                     	;# 
  1029  0299                     	;# 
  1030  029A                     	;# 
  1031  029B                     	;# 
  1032  029C                     	;# 
  1033  029C                     	;# 
  1034  029D                     	;# 
  1035  029E                     	;# 
  1036  029F                     	;# 
  1037  0311                     	;# 
  1038  0311                     	;# 
  1039  0312                     	;# 
  1040  0313                     	;# 
  1041  0314                     	;# 
  1042  0315                     	;# 
  1043  0315                     	;# 
  1044  0316                     	;# 
  1045  0318                     	;# 
  1046  0318                     	;# 
  1047  0319                     	;# 
  1048  031A                     	;# 
  1049  031C                     	;# 
  1050  031C                     	;# 
  1051  031D                     	;# 
  1052  031E                     	;# 
  1053  0394                     	;# 
  1054  0395                     	;# 
  1055  0396                     	;# 
  1056  0415                     	;# 
  1057  0416                     	;# 
  1058  0417                     	;# 
  1059  041C                     	;# 
  1060  041D                     	;# 
  1061  041E                     	;# 
  1062  0791                     	;# 
  1063  0792                     	;# 
  1064  0793                     	;# 
  1065  0794                     	;# 
  1066  0795                     	;# 
  1067  0798                     	;# 
  1068  0799                     	;# 
  1069  079A                     	;# 
  1070  07A0                     	;# 
  1071  07A1                     	;# 
  1072  07A2                     	;# 
  1073  07A3                     	;# 
  1074  07A4                     	;# 
  1075  07A5                     	;# 
  1076  07A6                     	;# 
  1077  07A7                     	;# 
  1078  07A8                     	;# 
  1079  07A9                     	;# 
  1080  07AA                     	;# 
  1081  07AB                     	;# 
  1082  0FE4                     	;# 
  1083  0FE5                     	;# 
  1084  0FE6                     	;# 
  1085  0FE7                     	;# 
  1086  0FE8                     	;# 
  1087  0FE9                     	;# 
  1088  0FEA                     	;# 
  1089  0FEB                     	;# 
  1090  0FED                     	;# 
  1091  0FEE                     	;# 
  1092  0FEF                     	;# 
  1093  0000                     	;# 
  1094  0001                     	;# 
  1095  0002                     	;# 
  1096  0003                     	;# 
  1097  0004                     	;# 
  1098  0005                     	;# 
  1099  0006                     	;# 
  1100  0007                     	;# 
  1101  0008                     	;# 
  1102  0009                     	;# 
  1103  000A                     	;# 
  1104  000B                     	;# 
  1105  000C                     	;# 
  1106  000D                     	;# 
  1107  000E                     	;# 
  1108  000F                     	;# 
  1109  0010                     	;# 
  1110  0011                     	;# 
  1111  0012                     	;# 
  1112  0013                     	;# 
  1113  0015                     	;# 
  1114  0016                     	;# 
  1115  0016                     	;# 
  1116  0017                     	;# 
  1117  0018                     	;# 
  1118  0019                     	;# 
  1119  001A                     	;# 
  1120  001B                     	;# 
  1121  001C                     	;# 
  1122  001E                     	;# 
  1123  001F                     	;# 
  1124  008C                     	;# 
  1125  008D                     	;# 
  1126  008E                     	;# 
  1127  008F                     	;# 
  1128  0090                     	;# 
  1129  0091                     	;# 
  1130  0092                     	;# 
  1131  0093                     	;# 
  1132  0095                     	;# 
  1133  0096                     	;# 
  1134  0097                     	;# 
  1135  0098                     	;# 
  1136  0099                     	;# 
  1137  009A                     	;# 
  1138  009B                     	;# 
  1139  009B                     	;# 
  1140  009C                     	;# 
  1141  009D                     	;# 
  1142  009E                     	;# 
  1143  010C                     	;# 
  1144  010D                     	;# 
  1145  010E                     	;# 
  1146  010F                     	;# 
  1147  0110                     	;# 
  1148  0111                     	;# 
  1149  0112                     	;# 
  1150  0113                     	;# 
  1151  0114                     	;# 
  1152  0115                     	;# 
  1153  0116                     	;# 
  1154  0117                     	;# 
  1155  0118                     	;# 
  1156  0119                     	;# 
  1157  011A                     	;# 
  1158  011B                     	;# 
  1159  011D                     	;# 
  1160  018C                     	;# 
  1161  018D                     	;# 
  1162  018F                     	;# 
  1163  0190                     	;# 
  1164  0191                     	;# 
  1165  0191                     	;# 
  1166  0192                     	;# 
  1167  0193                     	;# 
  1168  0193                     	;# 
  1169  0193                     	;# 
  1170  0194                     	;# 
  1171  0195                     	;# 
  1172  0196                     	;# 
  1173  0199                     	;# 
  1174  019A                     	;# 
  1175  019B                     	;# 
  1176  019B                     	;# 
  1177  019B                     	;# 
  1178  019B                     	;# 
  1179  019C                     	;# 
  1180  019C                     	;# 
  1181  019D                     	;# 
  1182  019E                     	;# 
  1183  019F                     	;# 
  1184  020D                     	;# 
  1185  0210                     	;# 
  1186  0211                     	;# 
  1187  0212                     	;# 
  1188  0213                     	;# 
  1189  0214                     	;# 
  1190  0215                     	;# 
  1191  0215                     	;# 
  1192  0216                     	;# 
  1193  0217                     	;# 
  1194  0291                     	;# 
  1195  0291                     	;# 
  1196  0292                     	;# 
  1197  0293                     	;# 
  1198  0294                     	;# 
  1199  0295                     	;# 
  1200  0295                     	;# 
  1201  0296                     	;# 
  1202  0298                     	;# 
  1203  0298                     	;# 
  1204  0299                     	;# 
  1205  029A                     	;# 
  1206  029B                     	;# 
  1207  029C                     	;# 
  1208  029C                     	;# 
  1209  029D                     	;# 
  1210  029E                     	;# 
  1211  029F                     	;# 
  1212  0311                     	;# 
  1213  0311                     	;# 
  1214  0312                     	;# 
  1215  0313                     	;# 
  1216  0314                     	;# 
  1217  0315                     	;# 
  1218  0315                     	;# 
  1219  0316                     	;# 
  1220  0318                     	;# 
  1221  0318                     	;# 
  1222  0319                     	;# 
  1223  031A                     	;# 
  1224  031C                     	;# 
  1225  031C                     	;# 
  1226  031D                     	;# 
  1227  031E                     	;# 
  1228  0394                     	;# 
  1229  0395                     	;# 
  1230  0396                     	;# 
  1231  0415                     	;# 
  1232  0416                     	;# 
  1233  0417                     	;# 
  1234  041C                     	;# 
  1235  041D                     	;# 
  1236  041E                     	;# 
  1237  0791                     	;# 
  1238  0792                     	;# 
  1239  0793                     	;# 
  1240  0794                     	;# 
  1241  0795                     	;# 
  1242  0798                     	;# 
  1243  0799                     	;# 
  1244  079A                     	;# 
  1245  07A0                     	;# 
  1246  07A1                     	;# 
  1247  07A2                     	;# 
  1248  07A3                     	;# 
  1249  07A4                     	;# 
  1250  07A5                     	;# 
  1251  07A6                     	;# 
  1252  07A7                     	;# 
  1253  07A8                     	;# 
  1254  07A9                     	;# 
  1255  07AA                     	;# 
  1256  07AB                     	;# 
  1257  0FE4                     	;# 
  1258  0FE5                     	;# 
  1259  0FE6                     	;# 
  1260  0FE7                     	;# 
  1261  0FE8                     	;# 
  1262  0FE9                     	;# 
  1263  0FEA                     	;# 
  1264  0FEB                     	;# 
  1265  0FED                     	;# 
  1266  0FEE                     	;# 
  1267  0FEF                     	;# 
  1268  0000                     	;# 
  1269  0001                     	;# 
  1270  0002                     	;# 
  1271  0003                     	;# 
  1272  0004                     	;# 
  1273  0005                     	;# 
  1274  0006                     	;# 
  1275  0007                     	;# 
  1276  0008                     	;# 
  1277  0009                     	;# 
  1278  000A                     	;# 
  1279  000B                     	;# 
  1280  000C                     	;# 
  1281  000D                     	;# 
  1282  000E                     	;# 
  1283  000F                     	;# 
  1284  0010                     	;# 
  1285  0011                     	;# 
  1286  0012                     	;# 
  1287  0013                     	;# 
  1288  0015                     	;# 
  1289  0016                     	;# 
  1290  0016                     	;# 
  1291  0017                     	;# 
  1292  0018                     	;# 
  1293  0019                     	;# 
  1294  001A                     	;# 
  1295  001B                     	;# 
  1296  001C                     	;# 
  1297  001E                     	;# 
  1298  001F                     	;# 
  1299  008C                     	;# 
  1300  008D                     	;# 
  1301  008E                     	;# 
  1302  008F                     	;# 
  1303  0090                     	;# 
  1304  0091                     	;# 
  1305  0092                     	;# 
  1306  0093                     	;# 
  1307  0095                     	;# 
  1308  0096                     	;# 
  1309  0097                     	;# 
  1310  0098                     	;# 
  1311  0099                     	;# 
  1312  009A                     	;# 
  1313  009B                     	;# 
  1314  009B                     	;# 
  1315  009C                     	;# 
  1316  009D                     	;# 
  1317  009E                     	;# 
  1318  010C                     	;# 
  1319  010D                     	;# 
  1320  010E                     	;# 
  1321  010F                     	;# 
  1322  0110                     	;# 
  1323  0111                     	;# 
  1324  0112                     	;# 
  1325  0113                     	;# 
  1326  0114                     	;# 
  1327  0115                     	;# 
  1328  0116                     	;# 
  1329  0117                     	;# 
  1330  0118                     	;# 
  1331  0119                     	;# 
  1332  011A                     	;# 
  1333  011B                     	;# 
  1334  011D                     	;# 
  1335  018C                     	;# 
  1336  018D                     	;# 
  1337  018F                     	;# 
  1338  0190                     	;# 
  1339  0191                     	;# 
  1340  0191                     	;# 
  1341  0192                     	;# 
  1342  0193                     	;# 
  1343  0193                     	;# 
  1344  0193                     	;# 
  1345  0194                     	;# 
  1346  0195                     	;# 
  1347  0196                     	;# 
  1348  0199                     	;# 
  1349  019A                     	;# 
  1350  019B                     	;# 
  1351  019B                     	;# 
  1352  019B                     	;# 
  1353  019B                     	;# 
  1354  019C                     	;# 
  1355  019C                     	;# 
  1356  019D                     	;# 
  1357  019E                     	;# 
  1358  019F                     	;# 
  1359  020D                     	;# 
  1360  0210                     	;# 
  1361  0211                     	;# 
  1362  0212                     	;# 
  1363  0213                     	;# 
  1364  0214                     	;# 
  1365  0215                     	;# 
  1366  0215                     	;# 
  1367  0216                     	;# 
  1368  0217                     	;# 
  1369  0291                     	;# 
  1370  0291                     	;# 
  1371  0292                     	;# 
  1372  0293                     	;# 
  1373  0294                     	;# 
  1374  0295                     	;# 
  1375  0295                     	;# 
  1376  0296                     	;# 
  1377  0298                     	;# 
  1378  0298                     	;# 
  1379  0299                     	;# 
  1380  029A                     	;# 
  1381  029B                     	;# 
  1382  029C                     	;# 
  1383  029C                     	;# 
  1384  029D                     	;# 
  1385  029E                     	;# 
  1386  029F                     	;# 
  1387  0311                     	;# 
  1388  0311                     	;# 
  1389  0312                     	;# 
  1390  0313                     	;# 
  1391  0314                     	;# 
  1392  0315                     	;# 
  1393  0315                     	;# 
  1394  0316                     	;# 
  1395  0318                     	;# 
  1396  0318                     	;# 
  1397  0319                     	;# 
  1398  031A                     	;# 
  1399  031C                     	;# 
  1400  031C                     	;# 
  1401  031D                     	;# 
  1402  031E                     	;# 
  1403  0394                     	;# 
  1404  0395                     	;# 
  1405  0396                     	;# 
  1406  0415                     	;# 
  1407  0416                     	;# 
  1408  0417                     	;# 
  1409  041C                     	;# 
  1410  041D                     	;# 
  1411  041E                     	;# 
  1412  0791                     	;# 
  1413  0792                     	;# 
  1414  0793                     	;# 
  1415  0794                     	;# 
  1416  0795                     	;# 
  1417  0798                     	;# 
  1418  0799                     	;# 
  1419  079A                     	;# 
  1420  07A0                     	;# 
  1421  07A1                     	;# 
  1422  07A2                     	;# 
  1423  07A3                     	;# 
  1424  07A4                     	;# 
  1425  07A5                     	;# 
  1426  07A6                     	;# 
  1427  07A7                     	;# 
  1428  07A8                     	;# 
  1429  07A9                     	;# 
  1430  07AA                     	;# 
  1431  07AB                     	;# 
  1432  0FE4                     	;# 
  1433  0FE5                     	;# 
  1434  0FE6                     	;# 
  1435  0FE7                     	;# 
  1436  0FE8                     	;# 
  1437  0FE9                     	;# 
  1438  0FEA                     	;# 
  1439  0FEB                     	;# 
  1440  0FED                     	;# 
  1441  0FEE                     	;# 
  1442  0FEF                     	;# 
  1443  0000                     	;# 
  1444  0001                     	;# 
  1445  0002                     	;# 
  1446  0003                     	;# 
  1447  0004                     	;# 
  1448  0005                     	;# 
  1449  0006                     	;# 
  1450  0007                     	;# 
  1451  0008                     	;# 
  1452  0009                     	;# 
  1453  000A                     	;# 
  1454  000B                     	;# 
  1455  000C                     	;# 
  1456  000D                     	;# 
  1457  000E                     	;# 
  1458  000F                     	;# 
  1459  0010                     	;# 
  1460  0011                     	;# 
  1461  0012                     	;# 
  1462  0013                     	;# 
  1463  0015                     	;# 
  1464  0016                     	;# 
  1465  0016                     	;# 
  1466  0017                     	;# 
  1467  0018                     	;# 
  1468  0019                     	;# 
  1469  001A                     	;# 
  1470  001B                     	;# 
  1471  001C                     	;# 
  1472  001E                     	;# 
  1473  001F                     	;# 
  1474  008C                     	;# 
  1475  008D                     	;# 
  1476  008E                     	;# 
  1477  008F                     	;# 
  1478  0090                     	;# 
  1479  0091                     	;# 
  1480  0092                     	;# 
  1481  0093                     	;# 
  1482  0095                     	;# 
  1483  0096                     	;# 
  1484  0097                     	;# 
  1485  0098                     	;# 
  1486  0099                     	;# 
  1487  009A                     	;# 
  1488  009B                     	;# 
  1489  009B                     	;# 
  1490  009C                     	;# 
  1491  009D                     	;# 
  1492  009E                     	;# 
  1493  010C                     	;# 
  1494  010D                     	;# 
  1495  010E                     	;# 
  1496  010F                     	;# 
  1497  0110                     	;# 
  1498  0111                     	;# 
  1499  0112                     	;# 
  1500  0113                     	;# 
  1501  0114                     	;# 
  1502  0115                     	;# 
  1503  0116                     	;# 
  1504  0117                     	;# 
  1505  0118                     	;# 
  1506  0119                     	;# 
  1507  011A                     	;# 
  1508  011B                     	;# 
  1509  011D                     	;# 
  1510  018C                     	;# 
  1511  018D                     	;# 
  1512  018F                     	;# 
  1513  0190                     	;# 
  1514  0191                     	;# 
  1515  0191                     	;# 
  1516  0192                     	;# 
  1517  0193                     	;# 
  1518  0193                     	;# 
  1519  0193                     	;# 
  1520  0194                     	;# 
  1521  0195                     	;# 
  1522  0196                     	;# 
  1523  0199                     	;# 
  1524  019A                     	;# 
  1525  019B                     	;# 
  1526  019B                     	;# 
  1527  019B                     	;# 
  1528  019B                     	;# 
  1529  019C                     	;# 
  1530  019C                     	;# 
  1531  019D                     	;# 
  1532  019E                     	;# 
  1533  019F                     	;# 
  1534  020D                     	;# 
  1535  0210                     	;# 
  1536  0211                     	;# 
  1537  0212                     	;# 
  1538  0213                     	;# 
  1539  0214                     	;# 
  1540  0215                     	;# 
  1541  0215                     	;# 
  1542  0216                     	;# 
  1543  0217                     	;# 
  1544  0291                     	;# 
  1545  0291                     	;# 
  1546  0292                     	;# 
  1547  0293                     	;# 
  1548  0294                     	;# 
  1549  0295                     	;# 
  1550  0295                     	;# 
  1551  0296                     	;# 
  1552  0298                     	;# 
  1553  0298                     	;# 
  1554  0299                     	;# 
  1555  029A                     	;# 
  1556  029B                     	;# 
  1557  029C                     	;# 
  1558  029C                     	;# 
  1559  029D                     	;# 
  1560  029E                     	;# 
  1561  029F                     	;# 
  1562  0311                     	;# 
  1563  0311                     	;# 
  1564  0312                     	;# 
  1565  0313                     	;# 
  1566  0314                     	;# 
  1567  0315                     	;# 
  1568  0315                     	;# 
  1569  0316                     	;# 
  1570  0318                     	;# 
  1571  0318                     	;# 
  1572  0319                     	;# 
  1573  031A                     	;# 
  1574  031C                     	;# 
  1575  031C                     	;# 
  1576  031D                     	;# 
  1577  031E                     	;# 
  1578  0394                     	;# 
  1579  0395                     	;# 
  1580  0396                     	;# 
  1581  0415                     	;# 
  1582  0416                     	;# 
  1583  0417                     	;# 
  1584  041C                     	;# 
  1585  041D                     	;# 
  1586  041E                     	;# 
  1587  0791                     	;# 
  1588  0792                     	;# 
  1589  0793                     	;# 
  1590  0794                     	;# 
  1591  0795                     	;# 
  1592  0798                     	;# 
  1593  0799                     	;# 
  1594  079A                     	;# 
  1595  07A0                     	;# 
  1596  07A1                     	;# 
  1597  07A2                     	;# 
  1598  07A3                     	;# 
  1599  07A4                     	;# 
  1600  07A5                     	;# 
  1601  07A6                     	;# 
  1602  07A7                     	;# 
  1603  07A8                     	;# 
  1604  07A9                     	;# 
  1605  07AA                     	;# 
  1606  07AB                     	;# 
  1607  0FE4                     	;# 
  1608  0FE5                     	;# 
  1609  0FE6                     	;# 
  1610  0FE7                     	;# 
  1611  0FE8                     	;# 
  1612  0FE9                     	;# 
  1613  0FEA                     	;# 
  1614  0FEB                     	;# 
  1615  0FED                     	;# 
  1616  0FEE                     	;# 
  1617  0FEF                     	;# 
  1618  0000                     	;# 
  1619  0001                     	;# 
  1620  0002                     	;# 
  1621  0003                     	;# 
  1622  0004                     	;# 
  1623  0005                     	;# 
  1624  0006                     	;# 
  1625  0007                     	;# 
  1626  0008                     	;# 
  1627  0009                     	;# 
  1628  000A                     	;# 
  1629  000B                     	;# 
  1630  000C                     	;# 
  1631  000D                     	;# 
  1632  000E                     	;# 
  1633  000F                     	;# 
  1634  0010                     	;# 
  1635  0011                     	;# 
  1636  0012                     	;# 
  1637  0013                     	;# 
  1638  0015                     	;# 
  1639  0016                     	;# 
  1640  0016                     	;# 
  1641  0017                     	;# 
  1642  0018                     	;# 
  1643  0019                     	;# 
  1644  001A                     	;# 
  1645  001B                     	;# 
  1646  001C                     	;# 
  1647  001E                     	;# 
  1648  001F                     	;# 
  1649  008C                     	;# 
  1650  008D                     	;# 
  1651  008E                     	;# 
  1652  008F                     	;# 
  1653  0090                     	;# 
  1654  0091                     	;# 
  1655  0092                     	;# 
  1656  0093                     	;# 
  1657  0095                     	;# 
  1658  0096                     	;# 
  1659  0097                     	;# 
  1660  0098                     	;# 
  1661  0099                     	;# 
  1662  009A                     	;# 
  1663  009B                     	;# 
  1664  009B                     	;# 
  1665  009C                     	;# 
  1666  009D                     	;# 
  1667  009E                     	;# 
  1668  010C                     	;# 
  1669  010D                     	;# 
  1670  010E                     	;# 
  1671  010F                     	;# 
  1672  0110                     	;# 
  1673  0111                     	;# 
  1674  0112                     	;# 
  1675  0113                     	;# 
  1676  0114                     	;# 
  1677  0115                     	;# 
  1678  0116                     	;# 
  1679  0117                     	;# 
  1680  0118                     	;# 
  1681  0119                     	;# 
  1682  011A                     	;# 
  1683  011B                     	;# 
  1684  011D                     	;# 
  1685  018C                     	;# 
  1686  018D                     	;# 
  1687  018F                     	;# 
  1688  0190                     	;# 
  1689  0191                     	;# 
  1690  0191                     	;# 
  1691  0192                     	;# 
  1692  0193                     	;# 
  1693  0193                     	;# 
  1694  0193                     	;# 
  1695  0194                     	;# 
  1696  0195                     	;# 
  1697  0196                     	;# 
  1698  0199                     	;# 
  1699  019A                     	;# 
  1700  019B                     	;# 
  1701  019B                     	;# 
  1702  019B                     	;# 
  1703  019B                     	;# 
  1704  019C                     	;# 
  1705  019C                     	;# 
  1706  019D                     	;# 
  1707  019E                     	;# 
  1708  019F                     	;# 
  1709  020D                     	;# 
  1710  0210                     	;# 
  1711  0211                     	;# 
  1712  0212                     	;# 
  1713  0213                     	;# 
  1714  0214                     	;# 
  1715  0215                     	;# 
  1716  0215                     	;# 
  1717  0216                     	;# 
  1718  0217                     	;# 
  1719  0291                     	;# 
  1720  0291                     	;# 
  1721  0292                     	;# 
  1722  0293                     	;# 
  1723  0294                     	;# 
  1724  0295                     	;# 
  1725  0295                     	;# 
  1726  0296                     	;# 
  1727  0298                     	;# 
  1728  0298                     	;# 
  1729  0299                     	;# 
  1730  029A                     	;# 
  1731  029B                     	;# 
  1732  029C                     	;# 
  1733  029C                     	;# 
  1734  029D                     	;# 
  1735  029E                     	;# 
  1736  029F                     	;# 
  1737  0311                     	;# 
  1738  0311                     	;# 
  1739  0312                     	;# 
  1740  0313                     	;# 
  1741  0314                     	;# 
  1742  0315                     	;# 
  1743  0315                     	;# 
  1744  0316                     	;# 
  1745  0318                     	;# 
  1746  0318                     	;# 
  1747  0319                     	;# 
  1748  031A                     	;# 
  1749  031C                     	;# 
  1750  031C                     	;# 
  1751  031D                     	;# 
  1752  031E                     	;# 
  1753  0394                     	;# 
  1754  0395                     	;# 
  1755  0396                     	;# 
  1756  0415                     	;# 
  1757  0416                     	;# 
  1758  0417                     	;# 
  1759  041C                     	;# 
  1760  041D                     	;# 
  1761  041E                     	;# 
  1762  0791                     	;# 
  1763  0792                     	;# 
  1764  0793                     	;# 
  1765  0794                     	;# 
  1766  0795                     	;# 
  1767  0798                     	;# 
  1768  0799                     	;# 
  1769  079A                     	;# 
  1770  07A0                     	;# 
  1771  07A1                     	;# 
  1772  07A2                     	;# 
  1773  07A3                     	;# 
  1774  07A4                     	;# 
  1775  07A5                     	;# 
  1776  07A6                     	;# 
  1777  07A7                     	;# 
  1778  07A8                     	;# 
  1779  07A9                     	;# 
  1780  07AA                     	;# 
  1781  07AB                     	;# 
  1782  0FE4                     	;# 
  1783  0FE5                     	;# 
  1784  0FE6                     	;# 
  1785  0FE7                     	;# 
  1786  0FE8                     	;# 
  1787  0FE9                     	;# 
  1788  0FEA                     	;# 
  1789  0FEB                     	;# 
  1790  0FED                     	;# 
  1791  0FEE                     	;# 
  1792  0FEF                     	;# 
  1793  0000                     	;# 
  1794  0001                     	;# 
  1795  0002                     	;# 
  1796  0003                     	;# 
  1797  0004                     	;# 
  1798  0005                     	;# 
  1799  0006                     	;# 
  1800  0007                     	;# 
  1801  0008                     	;# 
  1802  0009                     	;# 
  1803  000A                     	;# 
  1804  000B                     	;# 
  1805  000C                     	;# 
  1806  000D                     	;# 
  1807  000E                     	;# 
  1808  000F                     	;# 
  1809  0010                     	;# 
  1810  0011                     	;# 
  1811  0012                     	;# 
  1812  0013                     	;# 
  1813  0015                     	;# 
  1814  0016                     	;# 
  1815  0016                     	;# 
  1816  0017                     	;# 
  1817  0018                     	;# 
  1818  0019                     	;# 
  1819  001A                     	;# 
  1820  001B                     	;# 
  1821  001C                     	;# 
  1822  001E                     	;# 
  1823  001F                     	;# 
  1824  008C                     	;# 
  1825  008D                     	;# 
  1826  008E                     	;# 
  1827  008F                     	;# 
  1828  0090                     	;# 
  1829  0091                     	;# 
  1830  0092                     	;# 
  1831  0093                     	;# 
  1832  0095                     	;# 
  1833  0096                     	;# 
  1834  0097                     	;# 
  1835  0098                     	;# 
  1836  0099                     	;# 
  1837  009A                     	;# 
  1838  009B                     	;# 
  1839  009B                     	;# 
  1840  009C                     	;# 
  1841  009D                     	;# 
  1842  009E                     	;# 
  1843  010C                     	;# 
  1844  010D                     	;# 
  1845  010E                     	;# 
  1846  010F                     	;# 
  1847  0110                     	;# 
  1848  0111                     	;# 
  1849  0112                     	;# 
  1850  0113                     	;# 
  1851  0114                     	;# 
  1852  0115                     	;# 
  1853  0116                     	;# 
  1854  0117                     	;# 
  1855  0118                     	;# 
  1856  0119                     	;# 
  1857  011A                     	;# 
  1858  011B                     	;# 
  1859  011D                     	;# 
  1860  018C                     	;# 
  1861  018D                     	;# 
  1862  018F                     	;# 
  1863  0190                     	;# 
  1864  0191                     	;# 
  1865  0191                     	;# 
  1866  0192                     	;# 
  1867  0193                     	;# 
  1868  0193                     	;# 
  1869  0193                     	;# 
  1870  0194                     	;# 
  1871  0195                     	;# 
  1872  0196                     	;# 
  1873  0199                     	;# 
  1874  019A                     	;# 
  1875  019B                     	;# 
  1876  019B                     	;# 
  1877  019B                     	;# 
  1878  019B                     	;# 
  1879  019C                     	;# 
  1880  019C                     	;# 
  1881  019D                     	;# 
  1882  019E                     	;# 
  1883  019F                     	;# 
  1884  020D                     	;# 
  1885  0210                     	;# 
  1886  0211                     	;# 
  1887  0212                     	;# 
  1888  0213                     	;# 
  1889  0214                     	;# 
  1890  0215                     	;# 
  1891  0215                     	;# 
  1892  0216                     	;# 
  1893  0217                     	;# 
  1894  0291                     	;# 
  1895  0291                     	;# 
  1896  0292                     	;# 
  1897  0293                     	;# 
  1898  0294                     	;# 
  1899  0295                     	;# 
  1900  0295                     	;# 
  1901  0296                     	;# 
  1902  0298                     	;# 
  1903  0298                     	;# 
  1904  0299                     	;# 
  1905  029A                     	;# 
  1906  029B                     	;# 
  1907  029C                     	;# 
  1908  029C                     	;# 
  1909  029D                     	;# 
  1910  029E                     	;# 
  1911  029F                     	;# 
  1912  0311                     	;# 
  1913  0311                     	;# 
  1914  0312                     	;# 
  1915  0313                     	;# 
  1916  0314                     	;# 
  1917  0315                     	;# 
  1918  0315                     	;# 
  1919  0316                     	;# 
  1920  0318                     	;# 
  1921  0318                     	;# 
  1922  0319                     	;# 
  1923  031A                     	;# 
  1924  031C                     	;# 
  1925  031C                     	;# 
  1926  031D                     	;# 
  1927  031E                     	;# 
  1928  0394                     	;# 
  1929  0395                     	;# 
  1930  0396                     	;# 
  1931  0415                     	;# 
  1932  0416                     	;# 
  1933  0417                     	;# 
  1934  041C                     	;# 
  1935  041D                     	;# 
  1936  041E                     	;# 
  1937  0791                     	;# 
  1938  0792                     	;# 
  1939  0793                     	;# 
  1940  0794                     	;# 
  1941  0795                     	;# 
  1942  0798                     	;# 
  1943  0799                     	;# 
  1944  079A                     	;# 
  1945  07A0                     	;# 
  1946  07A1                     	;# 
  1947  07A2                     	;# 
  1948  07A3                     	;# 
  1949  07A4                     	;# 
  1950  07A5                     	;# 
  1951  07A6                     	;# 
  1952  07A7                     	;# 
  1953  07A8                     	;# 
  1954  07A9                     	;# 
  1955  07AA                     	;# 
  1956  07AB                     	;# 
  1957  0FE4                     	;# 
  1958  0FE5                     	;# 
  1959  0FE6                     	;# 
  1960  0FE7                     	;# 
  1961  0FE8                     	;# 
  1962  0FE9                     	;# 
  1963  0FEA                     	;# 
  1964  0FEB                     	;# 
  1965  0FED                     	;# 
  1966  0FEE                     	;# 
  1967  0FEF                     	;# 
  1968  0000                     	;# 
  1969  0001                     	;# 
  1970  0002                     	;# 
  1971  0003                     	;# 
  1972  0004                     	;# 
  1973  0005                     	;# 
  1974  0006                     	;# 
  1975  0007                     	;# 
  1976  0008                     	;# 
  1977  0009                     	;# 
  1978  000A                     	;# 
  1979  000B                     	;# 
  1980  000C                     	;# 
  1981  000D                     	;# 
  1982  000E                     	;# 
  1983  000F                     	;# 
  1984  0010                     	;# 
  1985  0011                     	;# 
  1986  0012                     	;# 
  1987  0013                     	;# 
  1988  0015                     	;# 
  1989  0016                     	;# 
  1990  0016                     	;# 
  1991  0017                     	;# 
  1992  0018                     	;# 
  1993  0019                     	;# 
  1994  001A                     	;# 
  1995  001B                     	;# 
  1996  001C                     	;# 
  1997  001E                     	;# 
  1998  001F                     	;# 
  1999  008C                     	;# 
  2000  008D                     	;# 
  2001  008E                     	;# 
  2002  008F                     	;# 
  2003  0090                     	;# 
  2004  0091                     	;# 
  2005  0092                     	;# 
  2006  0093                     	;# 
  2007  0095                     	;# 
  2008  0096                     	;# 
  2009  0097                     	;# 
  2010  0098                     	;# 
  2011  0099                     	;# 
  2012  009A                     	;# 
  2013  009B                     	;# 
  2014  009B                     	;# 
  2015  009C                     	;# 
  2016  009D                     	;# 
  2017  009E                     	;# 
  2018  010C                     	;# 
  2019  010D                     	;# 
  2020  010E                     	;# 
  2021  010F                     	;# 
  2022  0110                     	;# 
  2023  0111                     	;# 
  2024  0112                     	;# 
  2025  0113                     	;# 
  2026  0114                     	;# 
  2027  0115                     	;# 
  2028  0116                     	;# 
  2029  0117                     	;# 
  2030  0118                     	;# 
  2031  0119                     	;# 
  2032  011A                     	;# 
  2033  011B                     	;# 
  2034  011D                     	;# 
  2035  018C                     	;# 
  2036  018D                     	;# 
  2037  018F                     	;# 
  2038  0190                     	;# 
  2039  0191                     	;# 
  2040  0191                     	;# 
  2041  0192                     	;# 
  2042  0193                     	;# 
  2043  0193                     	;# 
  2044  0193                     	;# 
  2045  0194                     	;# 
  2046  0195                     	;# 
  2047  0196                     	;# 
  2048  0199                     	;# 
  2049  019A                     	;# 
  2050  019B                     	;# 
  2051  019B                     	;# 
  2052  019B                     	;# 
  2053  019B                     	;# 
  2054  019C                     	;# 
  2055  019C                     	;# 
  2056  019D                     	;# 
  2057  019E                     	;# 
  2058  019F                     	;# 
  2059  020D                     	;# 
  2060  0210                     	;# 
  2061  0211                     	;# 
  2062  0212                     	;# 
  2063  0213                     	;# 
  2064  0214                     	;# 
  2065  0215                     	;# 
  2066  0215                     	;# 
  2067  0216                     	;# 
  2068  0217                     	;# 
  2069  0291                     	;# 
  2070  0291                     	;# 
  2071  0292                     	;# 
  2072  0293                     	;# 
  2073  0294                     	;# 
  2074  0295                     	;# 
  2075  0295                     	;# 
  2076  0296                     	;# 
  2077  0298                     	;# 
  2078  0298                     	;# 
  2079  0299                     	;# 
  2080  029A                     	;# 
  2081  029B                     	;# 
  2082  029C                     	;# 
  2083  029C                     	;# 
  2084  029D                     	;# 
  2085  029E                     	;# 
  2086  029F                     	;# 
  2087  0311                     	;# 
  2088  0311                     	;# 
  2089  0312                     	;# 
  2090  0313                     	;# 
  2091  0314                     	;# 
  2092  0315                     	;# 
  2093  0315                     	;# 
  2094  0316                     	;# 
  2095  0318                     	;# 
  2096  0318                     	;# 
  2097  0319                     	;# 
  2098  031A                     	;# 
  2099  031C                     	;# 
  2100  031C                     	;# 
  2101  031D                     	;# 
  2102  031E                     	;# 
  2103  0394                     	;# 
  2104  0395                     	;# 
  2105  0396                     	;# 
  2106  0415                     	;# 
  2107  0416                     	;# 
  2108  0417                     	;# 
  2109  041C                     	;# 
  2110  041D                     	;# 
  2111  041E                     	;# 
  2112  0791                     	;# 
  2113  0792                     	;# 
  2114  0793                     	;# 
  2115  0794                     	;# 
  2116  0795                     	;# 
  2117  0798                     	;# 
  2118  0799                     	;# 
  2119  079A                     	;# 
  2120  07A0                     	;# 
  2121  07A1                     	;# 
  2122  07A2                     	;# 
  2123  07A3                     	;# 
  2124  07A4                     	;# 
  2125  07A5                     	;# 
  2126  07A6                     	;# 
  2127  07A7                     	;# 
  2128  07A8                     	;# 
  2129  07A9                     	;# 
  2130  07AA                     	;# 
  2131  07AB                     	;# 
  2132  0FE4                     	;# 
  2133  0FE5                     	;# 
  2134  0FE6                     	;# 
  2135  0FE7                     	;# 
  2136  0FE8                     	;# 
  2137  0FE9                     	;# 
  2138  0FEA                     	;# 
  2139  0FEB                     	;# 
  2140  0FED                     	;# 
  2141  0FEE                     	;# 
  2142  0FEF                     	;# 
  2143  0000                     	;# 
  2144  0001                     	;# 
  2145  0002                     	;# 
  2146  0003                     	;# 
  2147  0004                     	;# 
  2148  0005                     	;# 
  2149  0006                     	;# 
  2150  0007                     	;# 
  2151  0008                     	;# 
  2152  0009                     	;# 
  2153  000A                     	;# 
  2154  000B                     	;# 
  2155  000C                     	;# 
  2156  000D                     	;# 
  2157  000E                     	;# 
  2158  000F                     	;# 
  2159  0010                     	;# 
  2160  0011                     	;# 
  2161  0012                     	;# 
  2162  0013                     	;# 
  2163  0015                     	;# 
  2164  0016                     	;# 
  2165  0016                     	;# 
  2166  0017                     	;# 
  2167  0018                     	;# 
  2168  0019                     	;# 
  2169  001A                     	;# 
  2170  001B                     	;# 
  2171  001C                     	;# 
  2172  001E                     	;# 
  2173  001F                     	;# 
  2174  008C                     	;# 
  2175  008D                     	;# 
  2176  008E                     	;# 
  2177  008F                     	;# 
  2178  0090                     	;# 
  2179  0091                     	;# 
  2180  0092                     	;# 
  2181  0093                     	;# 
  2182  0095                     	;# 
  2183  0096                     	;# 
  2184  0097                     	;# 
  2185  0098                     	;# 
  2186  0099                     	;# 
  2187  009A                     	;# 
  2188  009B                     	;# 
  2189  009B                     	;# 
  2190  009C                     	;# 
  2191  009D                     	;# 
  2192  009E                     	;# 
  2193  010C                     	;# 
  2194  010D                     	;# 
  2195  010E                     	;# 
  2196  010F                     	;# 
  2197  0110                     	;# 
  2198  0111                     	;# 
  2199  0112                     	;# 
  2200  0113                     	;# 
  2201  0114                     	;# 
  2202  0115                     	;# 
  2203  0116                     	;# 
  2204  0117                     	;# 
  2205  0118                     	;# 
  2206  0119                     	;# 
  2207  011A                     	;# 
  2208  011B                     	;# 
  2209  011D                     	;# 
  2210  018C                     	;# 
  2211  018D                     	;# 
  2212  018F                     	;# 
  2213  0190                     	;# 
  2214  0191                     	;# 
  2215  0191                     	;# 
  2216  0192                     	;# 
  2217  0193                     	;# 
  2218  0193                     	;# 
  2219  0193                     	;# 
  2220  0194                     	;# 
  2221  0195                     	;# 
  2222  0196                     	;# 
  2223  0199                     	;# 
  2224  019A                     	;# 
  2225  019B                     	;# 
  2226  019B                     	;# 
  2227  019B                     	;# 
  2228  019B                     	;# 
  2229  019C                     	;# 
  2230  019C                     	;# 
  2231  019D                     	;# 
  2232  019E                     	;# 
  2233  019F                     	;# 
  2234  020D                     	;# 
  2235  0210                     	;# 
  2236  0211                     	;# 
  2237  0212                     	;# 
  2238  0213                     	;# 
  2239  0214                     	;# 
  2240  0215                     	;# 
  2241  0215                     	;# 
  2242  0216                     	;# 
  2243  0217                     	;# 
  2244  0291                     	;# 
  2245  0291                     	;# 
  2246  0292                     	;# 
  2247  0293                     	;# 
  2248  0294                     	;# 
  2249  0295                     	;# 
  2250  0295                     	;# 
  2251  0296                     	;# 
  2252  0298                     	;# 
  2253  0298                     	;# 
  2254  0299                     	;# 
  2255  029A                     	;# 
  2256  029B                     	;# 
  2257  029C                     	;# 
  2258  029C                     	;# 
  2259  029D                     	;# 
  2260  029E                     	;# 
  2261  029F                     	;# 
  2262  0311                     	;# 
  2263  0311                     	;# 
  2264  0312                     	;# 
  2265  0313                     	;# 
  2266  0314                     	;# 
  2267  0315                     	;# 
  2268  0315                     	;# 
  2269  0316                     	;# 
  2270  0318                     	;# 
  2271  0318                     	;# 
  2272  0319                     	;# 
  2273  031A                     	;# 
  2274  031C                     	;# 
  2275  031C                     	;# 
  2276  031D                     	;# 
  2277  031E                     	;# 
  2278  0394                     	;# 
  2279  0395                     	;# 
  2280  0396                     	;# 
  2281  0415                     	;# 
  2282  0416                     	;# 
  2283  0417                     	;# 
  2284  041C                     	;# 
  2285  041D                     	;# 
  2286  041E                     	;# 
  2287  0791                     	;# 
  2288  0792                     	;# 
  2289  0793                     	;# 
  2290  0794                     	;# 
  2291  0795                     	;# 
  2292  0798                     	;# 
  2293  0799                     	;# 
  2294  079A                     	;# 
  2295  07A0                     	;# 
  2296  07A1                     	;# 
  2297  07A2                     	;# 
  2298  07A3                     	;# 
  2299  07A4                     	;# 
  2300  07A5                     	;# 
  2301  07A6                     	;# 
  2302  07A7                     	;# 
  2303  07A8                     	;# 
  2304  07A9                     	;# 
  2305  07AA                     	;# 
  2306  07AB                     	;# 
  2307  0FE4                     	;# 
  2308  0FE5                     	;# 
  2309  0FE6                     	;# 
  2310  0FE7                     	;# 
  2311  0FE8                     	;# 
  2312  0FE9                     	;# 
  2313  0FEA                     	;# 
  2314  0FEB                     	;# 
  2315  0FED                     	;# 
  2316  0FEE                     	;# 
  2317  0FEF                     	;# 
  2318  0000                     	;# 
  2319  0001                     	;# 
  2320  0002                     	;# 
  2321  0003                     	;# 
  2322  0004                     	;# 
  2323  0005                     	;# 
  2324  0006                     	;# 
  2325  0007                     	;# 
  2326  0008                     	;# 
  2327  0009                     	;# 
  2328  000A                     	;# 
  2329  000B                     	;# 
  2330  000C                     	;# 
  2331  000D                     	;# 
  2332  000E                     	;# 
  2333  000F                     	;# 
  2334  0010                     	;# 
  2335  0011                     	;# 
  2336  0012                     	;# 
  2337  0013                     	;# 
  2338  0015                     	;# 
  2339  0016                     	;# 
  2340  0016                     	;# 
  2341  0017                     	;# 
  2342  0018                     	;# 
  2343  0019                     	;# 
  2344  001A                     	;# 
  2345  001B                     	;# 
  2346  001C                     	;# 
  2347  001E                     	;# 
  2348  001F                     	;# 
  2349  008C                     	;# 
  2350  008D                     	;# 
  2351  008E                     	;# 
  2352  008F                     	;# 
  2353  0090                     	;# 
  2354  0091                     	;# 
  2355  0092                     	;# 
  2356  0093                     	;# 
  2357  0095                     	;# 
  2358  0096                     	;# 
  2359  0097                     	;# 
  2360  0098                     	;# 
  2361  0099                     	;# 
  2362  009A                     	;# 
  2363  009B                     	;# 
  2364  009B                     	;# 
  2365  009C                     	;# 
  2366  009D                     	;# 
  2367  009E                     	;# 
  2368  010C                     	;# 
  2369  010D                     	;# 
  2370  010E                     	;# 
  2371  010F                     	;# 
  2372  0110                     	;# 
  2373  0111                     	;# 
  2374  0112                     	;# 
  2375  0113                     	;# 
  2376  0114                     	;# 
  2377  0115                     	;# 
  2378  0116                     	;# 
  2379  0117                     	;# 
  2380  0118                     	;# 
  2381  0119                     	;# 
  2382  011A                     	;# 
  2383  011B                     	;# 
  2384  011D                     	;# 
  2385  018C                     	;# 
  2386  018D                     	;# 
  2387  018F                     	;# 
  2388  0190                     	;# 
  2389  0191                     	;# 
  2390  0191                     	;# 
  2391  0192                     	;# 
  2392  0193                     	;# 
  2393  0193                     	;# 
  2394  0193                     	;# 
  2395  0194                     	;# 
  2396  0195                     	;# 
  2397  0196                     	;# 
  2398  0199                     	;# 
  2399  019A                     	;# 
  2400  019B                     	;# 
  2401  019B                     	;# 
  2402  019B                     	;# 
  2403  019B                     	;# 
  2404  019C                     	;# 
  2405  019C                     	;# 
  2406  019D                     	;# 
  2407  019E                     	;# 
  2408  019F                     	;# 
  2409  020D                     	;# 
  2410  0210                     	;# 
  2411  0211                     	;# 
  2412  0212                     	;# 
  2413  0213                     	;# 
  2414  0214                     	;# 
  2415  0215                     	;# 
  2416  0215                     	;# 
  2417  0216                     	;# 
  2418  0217                     	;# 
  2419  0291                     	;# 
  2420  0291                     	;# 
  2421  0292                     	;# 
  2422  0293                     	;# 
  2423  0294                     	;# 
  2424  0295                     	;# 
  2425  0295                     	;# 
  2426  0296                     	;# 
  2427  0298                     	;# 
  2428  0298                     	;# 
  2429  0299                     	;# 
  2430  029A                     	;# 
  2431  029B                     	;# 
  2432  029C                     	;# 
  2433  029C                     	;# 
  2434  029D                     	;# 
  2435  029E                     	;# 
  2436  029F                     	;# 
  2437  0311                     	;# 
  2438  0311                     	;# 
  2439  0312                     	;# 
  2440  0313                     	;# 
  2441  0314                     	;# 
  2442  0315                     	;# 
  2443  0315                     	;# 
  2444  0316                     	;# 
  2445  0318                     	;# 
  2446  0318                     	;# 
  2447  0319                     	;# 
  2448  031A                     	;# 
  2449  031C                     	;# 
  2450  031C                     	;# 
  2451  031D                     	;# 
  2452  031E                     	;# 
  2453  0394                     	;# 
  2454  0395                     	;# 
  2455  0396                     	;# 
  2456  0415                     	;# 
  2457  0416                     	;# 
  2458  0417                     	;# 
  2459  041C                     	;# 
  2460  041D                     	;# 
  2461  041E                     	;# 
  2462  0791                     	;# 
  2463  0792                     	;# 
  2464  0793                     	;# 
  2465  0794                     	;# 
  2466  0795                     	;# 
  2467  0798                     	;# 
  2468  0799                     	;# 
  2469  079A                     	;# 
  2470  07A0                     	;# 
  2471  07A1                     	;# 
  2472  07A2                     	;# 
  2473  07A3                     	;# 
  2474  07A4                     	;# 
  2475  07A5                     	;# 
  2476  07A6                     	;# 
  2477  07A7                     	;# 
  2478  07A8                     	;# 
  2479  07A9                     	;# 
  2480  07AA                     	;# 
  2481  07AB                     	;# 
  2482  0FE4                     	;# 
  2483  0FE5                     	;# 
  2484  0FE6                     	;# 
  2485  0FE7                     	;# 
  2486  0FE8                     	;# 
  2487  0FE9                     	;# 
  2488  0FEA                     	;# 
  2489  0FEB                     	;# 
  2490  0FED                     	;# 
  2491  0FEE                     	;# 
  2492  0FEF                     	;# 
  2493  0000                     	;# 
  2494  0001                     	;# 
  2495  0002                     	;# 
  2496  0003                     	;# 
  2497  0004                     	;# 
  2498  0005                     	;# 
  2499  0006                     	;# 
  2500  0007                     	;# 
  2501  0008                     	;# 
  2502  0009                     	;# 
  2503  000A                     	;# 
  2504  000B                     	;# 
  2505  000C                     	;# 
  2506  000D                     	;# 
  2507  000E                     	;# 
  2508  000F                     	;# 
  2509  0010                     	;# 
  2510  0011                     	;# 
  2511  0012                     	;# 
  2512  0013                     	;# 
  2513  0015                     	;# 
  2514  0016                     	;# 
  2515  0016                     	;# 
  2516  0017                     	;# 
  2517  0018                     	;# 
  2518  0019                     	;# 
  2519  001A                     	;# 
  2520  001B                     	;# 
  2521  001C                     	;# 
  2522  001E                     	;# 
  2523  001F                     	;# 
  2524  008C                     	;# 
  2525  008D                     	;# 
  2526  008E                     	;# 
  2527  008F                     	;# 
  2528  0090                     	;# 
  2529  0091                     	;# 
  2530  0092                     	;# 
  2531  0093                     	;# 
  2532  0095                     	;# 
  2533  0096                     	;# 
  2534  0097                     	;# 
  2535  0098                     	;# 
  2536  0099                     	;# 
  2537  009A                     	;# 
  2538  009B                     	;# 
  2539  009B                     	;# 
  2540  009C                     	;# 
  2541  009D                     	;# 
  2542  009E                     	;# 
  2543  010C                     	;# 
  2544  010D                     	;# 
  2545  010E                     	;# 
  2546  010F                     	;# 
  2547  0110                     	;# 
  2548  0111                     	;# 
  2549  0112                     	;# 
  2550  0113                     	;# 
  2551  0114                     	;# 
  2552  0115                     	;# 
  2553  0116                     	;# 
  2554  0117                     	;# 
  2555  0118                     	;# 
  2556  0119                     	;# 
  2557  011A                     	;# 
  2558  011B                     	;# 
  2559  011D                     	;# 
  2560  018C                     	;# 
  2561  018D                     	;# 
  2562  018F                     	;# 
  2563  0190                     	;# 
  2564  0191                     	;# 
  2565  0191                     	;# 
  2566  0192                     	;# 
  2567  0193                     	;# 
  2568  0193                     	;# 
  2569  0193                     	;# 
  2570  0194                     	;# 
  2571  0195                     	;# 
  2572  0196                     	;# 
  2573  0199                     	;# 
  2574  019A                     	;# 
  2575  019B                     	;# 
  2576  019B                     	;# 
  2577  019B                     	;# 
  2578  019B                     	;# 
  2579  019C                     	;# 
  2580  019C                     	;# 
  2581  019D                     	;# 
  2582  019E                     	;# 
  2583  019F                     	;# 
  2584  020D                     	;# 
  2585  0210                     	;# 
  2586  0211                     	;# 
  2587  0212                     	;# 
  2588  0213                     	;# 
  2589  0214                     	;# 
  2590  0215                     	;# 
  2591  0215                     	;# 
  2592  0216                     	;# 
  2593  0217                     	;# 
  2594  0291                     	;# 
  2595  0291                     	;# 
  2596  0292                     	;# 
  2597  0293                     	;# 
  2598  0294                     	;# 
  2599  0295                     	;# 
  2600  0295                     	;# 
  2601  0296                     	;# 
  2602  0298                     	;# 
  2603  0298                     	;# 
  2604  0299                     	;# 
  2605  029A                     	;# 
  2606  029B                     	;# 
  2607  029C                     	;# 
  2608  029C                     	;# 
  2609  029D                     	;# 
  2610  029E                     	;# 
  2611  029F                     	;# 
  2612  0311                     	;# 
  2613  0311                     	;# 
  2614  0312                     	;# 
  2615  0313                     	;# 
  2616  0314                     	;# 
  2617  0315                     	;# 
  2618  0315                     	;# 
  2619  0316                     	;# 
  2620  0318                     	;# 
  2621  0318                     	;# 
  2622  0319                     	;# 
  2623  031A                     	;# 
  2624  031C                     	;# 
  2625  031C                     	;# 
  2626  031D                     	;# 
  2627  031E                     	;# 
  2628  0394                     	;# 
  2629  0395                     	;# 
  2630  0396                     	;# 
  2631  0415                     	;# 
  2632  0416                     	;# 
  2633  0417                     	;# 
  2634  041C                     	;# 
  2635  041D                     	;# 
  2636  041E                     	;# 
  2637  0791                     	;# 
  2638  0792                     	;# 
  2639  0793                     	;# 
  2640  0794                     	;# 
  2641  0795                     	;# 
  2642  0798                     	;# 
  2643  0799                     	;# 
  2644  079A                     	;# 
  2645  07A0                     	;# 
  2646  07A1                     	;# 
  2647  07A2                     	;# 
  2648  07A3                     	;# 
  2649  07A4                     	;# 
  2650  07A5                     	;# 
  2651  07A6                     	;# 
  2652  07A7                     	;# 
  2653  07A8                     	;# 
  2654  07A9                     	;# 
  2655  07AA                     	;# 
  2656  07AB                     	;# 
  2657  0FE4                     	;# 
  2658  0FE5                     	;# 
  2659  0FE6                     	;# 
  2660  0FE7                     	;# 
  2661  0FE8                     	;# 
  2662  0FE9                     	;# 
  2663  0FEA                     	;# 
  2664  0FEB                     	;# 
  2665  0FED                     	;# 
  2666  0FEE                     	;# 
  2667  0FEF                     	;_a
  2668                           
  2669                           	psect	idataBANK0l
  2670  07FF                     __pidataBANK0l:	
  2671                           
  2672                           ;initializer for _mTouch_jitter
  2673  07FF  3455               	retlw	85
  2674                           
  2675                           	psect	idataBANK0h
  2676  0175                     __pidataBANK0h:	
  2677                           
  2678                           ;initializer for _enable
  2679  0175  3401               	retlw	1
  2680                           
  2681                           ;initializer for _led_number
  2682  0176  3436               	retlw	54
  2683                           
  2684                           	psect	stringtext
  2685  0200                     __pstringtext:	
  2686  0200                     __stringtab:	
  2687  0200  3400               	retlw	0
  2688  0201                     __end_of__stringtab:	
  2689  0201                     _sine:	
  2690  0201  3480               	retlw	128
  2691  0202  3480               	retlw	128
  2692  0203  3481               	retlw	129
  2693  0204  3482               	retlw	130
  2694  0205  3483               	retlw	131
  2695  0206  3483               	retlw	131
  2696  0207  3484               	retlw	132
  2697  0208  3485               	retlw	133
  2698  0209  3486               	retlw	134
  2699  020A  3487               	retlw	135
  2700  020B  3487               	retlw	135
  2701  020C  3488               	retlw	136
  2702  020D  3489               	retlw	137
  2703  020E  348A               	retlw	138
  2704  020F  348A               	retlw	138
  2705  0210  348B               	retlw	139
  2706  0211  348C               	retlw	140
  2707  0212  348D               	retlw	141
  2708  0213  348E               	retlw	142
  2709  0214  348E               	retlw	142
  2710  0215  348F               	retlw	143
  2711  0216  3490               	retlw	144
  2712  0217  3491               	retlw	145
  2713  0218  3491               	retlw	145
  2714  0219  3492               	retlw	146
  2715  021A  3493               	retlw	147
  2716  021B  3494               	retlw	148
  2717  021C  3495               	retlw	149
  2718  021D  3495               	retlw	149
  2719  021E  3496               	retlw	150
  2720  021F  3497               	retlw	151
  2721  0220  3498               	retlw	152
  2722  0221  3498               	retlw	152
  2723  0222  3499               	retlw	153
  2724  0223  349A               	retlw	154
  2725  0224  349B               	retlw	155
  2726  0225  349B               	retlw	155
  2727  0226  349C               	retlw	156
  2728  0227  349D               	retlw	157
  2729  0228  349E               	retlw	158
  2730  0229  349F               	retlw	159
  2731  022A  349F               	retlw	159
  2732  022B  34A0               	retlw	160
  2733  022C  34A1               	retlw	161
  2734  022D  34A2               	retlw	162
  2735  022E  34A2               	retlw	162
  2736  022F  34A3               	retlw	163
  2737  0230  34A4               	retlw	164
  2738  0231  34A5               	retlw	165
  2739  0232  34A5               	retlw	165
  2740  0233  34A6               	retlw	166
  2741  0234  34A7               	retlw	167
  2742  0235  34A8               	retlw	168
  2743  0236  34A8               	retlw	168
  2744  0237  34A9               	retlw	169
  2745  0238  34AA               	retlw	170
  2746  0239  34AA               	retlw	170
  2747  023A  34AB               	retlw	171
  2748  023B  34AC               	retlw	172
  2749  023C  34AD               	retlw	173
  2750  023D  34AD               	retlw	173
  2751  023E  34AE               	retlw	174
  2752  023F  34AF               	retlw	175
  2753  0240  34B0               	retlw	176
  2754  0241  34B0               	retlw	176
  2755  0242  34B1               	retlw	177
  2756  0243  34B2               	retlw	178
  2757  0244  34B2               	retlw	178
  2758  0245  34B3               	retlw	179
  2759  0246  34B4               	retlw	180
  2760  0247  34B5               	retlw	181
  2761  0248  34B5               	retlw	181
  2762  0249  34B6               	retlw	182
  2763  024A  34B7               	retlw	183
  2764  024B  34B7               	retlw	183
  2765  024C  34B8               	retlw	184
  2766  024D  34B9               	retlw	185
  2767  024E  34BA               	retlw	186
  2768  024F  34BA               	retlw	186
  2769  0250  34BB               	retlw	187
  2770  0251  34BC               	retlw	188
  2771  0252  34BC               	retlw	188
  2772  0253  34BD               	retlw	189
  2773  0254  34BE               	retlw	190
  2774  0255  34BE               	retlw	190
  2775  0256  34BF               	retlw	191
  2776  0257  34C0               	retlw	192
  2777  0258  34C0               	retlw	192
  2778  0259  34C1               	retlw	193
  2779  025A  34C2               	retlw	194
  2780  025B  34C2               	retlw	194
  2781  025C  34C3               	retlw	195
  2782  025D  34C4               	retlw	196
  2783  025E  34C4               	retlw	196
  2784  025F  34C5               	retlw	197
  2785  0260  34C6               	retlw	198
  2786  0261  34C6               	retlw	198
  2787  0262  34C7               	retlw	199
  2788  0263  34C8               	retlw	200
  2789  0264  34C8               	retlw	200
  2790  0265  34C9               	retlw	201
  2791  0266  34CA               	retlw	202
  2792  0267  34CA               	retlw	202
  2793  0268  34CB               	retlw	203
  2794  0269  34CC               	retlw	204
  2795  026A  34CC               	retlw	204
  2796  026B  34CD               	retlw	205
  2797  026C  34CD               	retlw	205
  2798  026D  34CE               	retlw	206
  2799  026E  34CF               	retlw	207
  2800  026F  34CF               	retlw	207
  2801  0270  34D0               	retlw	208
  2802  0271  34D0               	retlw	208
  2803  0272  34D1               	retlw	209
  2804  0273  34D2               	retlw	210
  2805  0274  34D2               	retlw	210
  2806  0275  34D3               	retlw	211
  2807  0276  34D3               	retlw	211
  2808  0277  34D4               	retlw	212
  2809  0278  34D5               	retlw	213
  2810  0279  34D5               	retlw	213
  2811  027A  34D6               	retlw	214
  2812  027B  34D6               	retlw	214
  2813  027C  34D7               	retlw	215
  2814  027D  34D7               	retlw	215
  2815  027E  34D8               	retlw	216
  2816  027F  34D9               	retlw	217
  2817  0280  34D9               	retlw	217
  2818  0281  34DA               	retlw	218
  2819  0282  34DA               	retlw	218
  2820  0283  34DB               	retlw	219
  2821  0284  34DB               	retlw	219
  2822  0285  34DC               	retlw	220
  2823  0286  34DC               	retlw	220
  2824  0287  34DD               	retlw	221
  2825  0288  34DE               	retlw	222
  2826  0289  34DE               	retlw	222
  2827  028A  34DF               	retlw	223
  2828  028B  34DF               	retlw	223
  2829  028C  34E0               	retlw	224
  2830  028D  34E0               	retlw	224
  2831  028E  34E1               	retlw	225
  2832  028F  34E1               	retlw	225
  2833  0290  34E2               	retlw	226
  2834  0291  34E2               	retlw	226
  2835  0292  34E3               	retlw	227
  2836  0293  34E3               	retlw	227
  2837  0294  34E4               	retlw	228
  2838  0295  34E4               	retlw	228
  2839  0296  34E5               	retlw	229
  2840  0297  34E5               	retlw	229
  2841  0298  34E6               	retlw	230
  2842  0299  34E6               	retlw	230
  2843  029A  34E6               	retlw	230
  2844  029B  34E7               	retlw	231
  2845  029C  34E7               	retlw	231
  2846  029D  34E8               	retlw	232
  2847  029E  34E8               	retlw	232
  2848  029F  34E9               	retlw	233
  2849  02A0  34E9               	retlw	233
  2850  02A1  34EA               	retlw	234
  2851  02A2  34EA               	retlw	234
  2852  02A3  34EA               	retlw	234
  2853  02A4  34EB               	retlw	235
  2854  02A5  34EB               	retlw	235
  2855  02A6  34EC               	retlw	236
  2856  02A7  34EC               	retlw	236
  2857  02A8  34ED               	retlw	237
  2858  02A9  34ED               	retlw	237
  2859  02AA  34ED               	retlw	237
  2860  02AB  34EE               	retlw	238
  2861  02AC  34EE               	retlw	238
  2862  02AD  34EF               	retlw	239
  2863  02AE  34EF               	retlw	239
  2864  02AF  34EF               	retlw	239
  2865  02B0  34F0               	retlw	240
  2866  02B1  34F0               	retlw	240
  2867  02B2  34F0               	retlw	240
  2868  02B3  34F1               	retlw	241
  2869  02B4  34F1               	retlw	241
  2870  02B5  34F1               	retlw	241
  2871  02B6  34F2               	retlw	242
  2872  02B7  34F2               	retlw	242
  2873  02B8  34F2               	retlw	242
  2874  02B9  34F3               	retlw	243
  2875  02BA  34F3               	retlw	243
  2876  02BB  34F3               	retlw	243
  2877  02BC  34F4               	retlw	244
  2878  02BD  34F4               	retlw	244
  2879  02BE  34F4               	retlw	244
  2880  02BF  34F5               	retlw	245
  2881  02C0  34F5               	retlw	245
  2882  02C1  34F5               	retlw	245
  2883  02C2  34F6               	retlw	246
  2884  02C3  34F6               	retlw	246
  2885  02C4  34F6               	retlw	246
  2886  02C5  34F7               	retlw	247
  2887  02C6  34F7               	retlw	247
  2888  02C7  34F7               	retlw	247
  2889  02C8  34F7               	retlw	247
  2890  02C9  34F8               	retlw	248
  2891  02CA  34F8               	retlw	248
  2892  02CB  34F8               	retlw	248
  2893  02CC  34F8               	retlw	248
  2894  02CD  34F9               	retlw	249
  2895  02CE  34F9               	retlw	249
  2896  02CF  34F9               	retlw	249
  2897  02D0  34F9               	retlw	249
  2898  02D1  34FA               	retlw	250
  2899  02D2  34FA               	retlw	250
  2900  02D3  34FA               	retlw	250
  2901  02D4  34FA               	retlw	250
  2902  02D5  34FA               	retlw	250
  2903  02D6  34FB               	retlw	251
  2904  02D7  34FB               	retlw	251
  2905  02D8  34FB               	retlw	251
  2906  02D9  34FB               	retlw	251
  2907  02DA  34FB               	retlw	251
  2908  02DB  34FC               	retlw	252
  2909  02DC  34FC               	retlw	252
  2910  02DD  34FC               	retlw	252
  2911  02DE  34FC               	retlw	252
  2912  02DF  34FC               	retlw	252
  2913  02E0  34FC               	retlw	252
  2914  02E1  34FD               	retlw	253
  2915  02E2  34FD               	retlw	253
  2916  02E3  34FD               	retlw	253
  2917  02E4  34FD               	retlw	253
  2918  02E5  34FD               	retlw	253
  2919  02E6  34FD               	retlw	253
  2920  02E7  34FD               	retlw	253
  2921  02E8  34FE               	retlw	254
  2922  02E9  34FE               	retlw	254
  2923  02EA  34FE               	retlw	254
  2924  02EB  34FE               	retlw	254
  2925  02EC  34FE               	retlw	254
  2926  02ED  34FE               	retlw	254
  2927  02EE  34FE               	retlw	254
  2928  02EF  34FE               	retlw	254
  2929  02F0  34FE               	retlw	254
  2930  02F1  34FE               	retlw	254
  2931  02F2  34FE               	retlw	254
  2932  02F3  34FF               	retlw	255
  2933  02F4  34FF               	retlw	255
  2934  02F5  34FF               	retlw	255
  2935  02F6  34FF               	retlw	255
  2936  02F7  34FF               	retlw	255
  2937  02F8  34FF               	retlw	255
  2938  02F9  34FF               	retlw	255
  2939  02FA  34FF               	retlw	255
  2940  02FB  34FF               	retlw	255
  2941  02FC  34FF               	retlw	255
  2942  02FD  34FF               	retlw	255
  2943  02FE  34FF               	retlw	255
  2944  02FF  34FF               	retlw	255
  2945  0300  34FF               	retlw	255
  2946  0301  34FF               	retlw	255
  2947  0302  34FF               	retlw	255
  2948  0303  34FF               	retlw	255
  2949  0304  34FF               	retlw	255
  2950  0305  34FF               	retlw	255
  2951  0306  34FF               	retlw	255
  2952  0307  34FF               	retlw	255
  2953  0308  34FF               	retlw	255
  2954  0309  34FF               	retlw	255
  2955  030A  34FF               	retlw	255
  2956  030B  34FF               	retlw	255
  2957  030C  34FF               	retlw	255
  2958  030D  34FF               	retlw	255
  2959  030E  34FF               	retlw	255
  2960  030F  34FF               	retlw	255
  2961  0310  34FE               	retlw	254
  2962  0311  34FE               	retlw	254
  2963  0312  34FE               	retlw	254
  2964  0313  34FE               	retlw	254
  2965  0314  34FE               	retlw	254
  2966  0315  34FE               	retlw	254
  2967  0316  34FE               	retlw	254
  2968  0317  34FE               	retlw	254
  2969  0318  34FE               	retlw	254
  2970  0319  34FE               	retlw	254
  2971  031A  34FD               	retlw	253
  2972  031B  34FD               	retlw	253
  2973  031C  34FD               	retlw	253
  2974  031D  34FD               	retlw	253
  2975  031E  34FD               	retlw	253
  2976  031F  34FD               	retlw	253
  2977  0320  34FD               	retlw	253
  2978  0321  34FD               	retlw	253
  2979  0322  34FC               	retlw	252
  2980  0323  34FC               	retlw	252
  2981  0324  34FC               	retlw	252
  2982  0325  34FC               	retlw	252
  2983  0326  34FC               	retlw	252
  2984  0327  34FB               	retlw	251
  2985  0328  34FB               	retlw	251
  2986  0329  34FB               	retlw	251
  2987  032A  34FB               	retlw	251
  2988  032B  34FB               	retlw	251
  2989  032C  34FB               	retlw	251
  2990  032D  34FA               	retlw	250
  2991  032E  34FA               	retlw	250
  2992  032F  34FA               	retlw	250
  2993  0330  34FA               	retlw	250
  2994  0331  34F9               	retlw	249
  2995  0332  34F9               	retlw	249
  2996  0333  34F9               	retlw	249
  2997  0334  34F9               	retlw	249
  2998  0335  34F8               	retlw	248
  2999  0336  34F8               	retlw	248
  3000  0337  34F8               	retlw	248
  3001  0338  34F8               	retlw	248
  3002  0339  34F7               	retlw	247
  3003  033A  34F7               	retlw	247
  3004  033B  34F7               	retlw	247
  3005  033C  34F7               	retlw	247
  3006  033D  34F6               	retlw	246
  3007  033E  34F6               	retlw	246
  3008  033F  34F6               	retlw	246
  3009  0340  34F5               	retlw	245
  3010  0341  34F5               	retlw	245
  3011  0342  34F5               	retlw	245
  3012  0343  34F5               	retlw	245
  3013  0344  34F4               	retlw	244
  3014  0345  34F4               	retlw	244
  3015  0346  34F4               	retlw	244
  3016  0347  34F3               	retlw	243
  3017  0348  34F3               	retlw	243
  3018  0349  34F3               	retlw	243
  3019  034A  34F2               	retlw	242
  3020  034B  34F2               	retlw	242
  3021  034C  34F2               	retlw	242
  3022  034D  34F1               	retlw	241
  3023  034E  34F1               	retlw	241
  3024  034F  34F1               	retlw	241
  3025  0350  34F0               	retlw	240
  3026  0351  34F0               	retlw	240
  3027  0352  34EF               	retlw	239
  3028  0353  34EF               	retlw	239
  3029  0354  34EF               	retlw	239
  3030  0355  34EE               	retlw	238
  3031  0356  34EE               	retlw	238
  3032  0357  34EE               	retlw	238
  3033  0358  34ED               	retlw	237
  3034  0359  34ED               	retlw	237
  3035  035A  34EC               	retlw	236
  3036  035B  34EC               	retlw	236
  3037  035C  34EB               	retlw	235
  3038  035D  34EB               	retlw	235
  3039  035E  34EB               	retlw	235
  3040  035F  34EA               	retlw	234
  3041  0360  34EA               	retlw	234
  3042  0361  34E9               	retlw	233
  3043  0362  34E9               	retlw	233
  3044  0363  34E8               	retlw	232
  3045  0364  34E8               	retlw	232
  3046  0365  34E8               	retlw	232
  3047  0366  34E7               	retlw	231
  3048  0367  34E7               	retlw	231
  3049  0368  34E6               	retlw	230
  3050  0369  34E6               	retlw	230
  3051  036A  34E5               	retlw	229
  3052  036B  34E5               	retlw	229
  3053  036C  34E4               	retlw	228
  3054  036D  34E4               	retlw	228
  3055  036E  34E3               	retlw	227
  3056  036F  34E3               	retlw	227
  3057  0370  34E2               	retlw	226
  3058  0371  34E2               	retlw	226
  3059  0372  34E1               	retlw	225
  3060  0373  34E1               	retlw	225
  3061  0374  34E0               	retlw	224
  3062  0375  34E0               	retlw	224
  3063  0376  34DF               	retlw	223
  3064  0377  34DF               	retlw	223
  3065  0378  34DE               	retlw	222
  3066  0379  34DE               	retlw	222
  3067  037A  34DD               	retlw	221
  3068  037B  34DD               	retlw	221
  3069  037C  34DC               	retlw	220
  3070  037D  34DC               	retlw	220
  3071  037E  34DB               	retlw	219
  3072  037F  34DB               	retlw	219
  3073  0380  34DA               	retlw	218
  3074  0381  34D9               	retlw	217
  3075  0382  34D9               	retlw	217
  3076  0383  34D8               	retlw	216
  3077  0384  34D8               	retlw	216
  3078  0385  34D7               	retlw	215
  3079  0386  34D7               	retlw	215
  3080  0387  34D6               	retlw	214
  3081  0388  34D5               	retlw	213
  3082  0389  34D5               	retlw	213
  3083  038A  34D4               	retlw	212
  3084  038B  34D4               	retlw	212
  3085  038C  34D3               	retlw	211
  3086  038D  34D3               	retlw	211
  3087  038E  34D2               	retlw	210
  3088  038F  34D1               	retlw	209
  3089  0390  34D1               	retlw	209
  3090  0391  34D0               	retlw	208
  3091  0392  34D0               	retlw	208
  3092  0393  34CF               	retlw	207
  3093  0394  34CE               	retlw	206
  3094  0395  34CE               	retlw	206
  3095  0396  34CD               	retlw	205
  3096  0397  34CC               	retlw	204
  3097  0398  34CC               	retlw	204
  3098  0399  34CB               	retlw	203
  3099  039A  34CB               	retlw	203
  3100  039B  34CA               	retlw	202
  3101  039C  34C9               	retlw	201
  3102  039D  34C9               	retlw	201
  3103  039E  34C8               	retlw	200
  3104  039F  34C7               	retlw	199
  3105  03A0  34C7               	retlw	199
  3106  03A1  34C6               	retlw	198
  3107  03A2  34C5               	retlw	197
  3108  03A3  34C5               	retlw	197
  3109  03A4  34C4               	retlw	196
  3110  03A5  34C3               	retlw	195
  3111  03A6  34C3               	retlw	195
  3112  03A7  34C2               	retlw	194
  3113  03A8  34C1               	retlw	193
  3114  03A9  34C1               	retlw	193
  3115  03AA  34C0               	retlw	192
  3116  03AB  34BF               	retlw	191
  3117  03AC  34BF               	retlw	191
  3118  03AD  34BE               	retlw	190
  3119  03AE  34BD               	retlw	189
  3120  03AF  34BD               	retlw	189
  3121  03B0  34BC               	retlw	188
  3122  03B1  34BB               	retlw	187
  3123  03B2  34BB               	retlw	187
  3124  03B3  34BA               	retlw	186
  3125  03B4  34B9               	retlw	185
  3126  03B5  34B9               	retlw	185
  3127  03B6  34B8               	retlw	184
  3128  03B7  34B7               	retlw	183
  3129  03B8  34B6               	retlw	182
  3130  03B9  34B6               	retlw	182
  3131  03BA  34B5               	retlw	181
  3132  03BB  34B4               	retlw	180
  3133  03BC  34B4               	retlw	180
  3134  03BD  34B3               	retlw	179
  3135  03BE  34B2               	retlw	178
  3136  03BF  34B1               	retlw	177
  3137  03C0  34B1               	retlw	177
  3138  03C1  34B0               	retlw	176
  3139  03C2  34AF               	retlw	175
  3140  03C3  34AF               	retlw	175
  3141  03C4  34AE               	retlw	174
  3142  03C5  34AD               	retlw	173
  3143  03C6  34AC               	retlw	172
  3144  03C7  34AC               	retlw	172
  3145  03C8  34AB               	retlw	171
  3146  03C9  34AA               	retlw	170
  3147  03CA  34A9               	retlw	169
  3148  03CB  34A9               	retlw	169
  3149  03CC  34A8               	retlw	168
  3150  03CD  34A7               	retlw	167
  3151  03CE  34A6               	retlw	166
  3152  03CF  34A6               	retlw	166
  3153  03D0  34A5               	retlw	165
  3154  03D1  34A4               	retlw	164
  3155  03D2  34A3               	retlw	163
  3156  03D3  34A3               	retlw	163
  3157  03D4  34A2               	retlw	162
  3158  03D5  34A1               	retlw	161
  3159  03D6  34A0               	retlw	160
  3160  03D7  34A0               	retlw	160
  3161  03D8  349F               	retlw	159
  3162  03D9  349E               	retlw	158
  3163  03DA  349D               	retlw	157
  3164  03DB  349D               	retlw	157
  3165  03DC  349C               	retlw	156
  3166  03DD  349B               	retlw	155
  3167  03DE  349A               	retlw	154
  3168  03DF  349A               	retlw	154
  3169  03E0  3499               	retlw	153
  3170  03E1  3498               	retlw	152
  3171  03E2  3497               	retlw	151
  3172  03E3  3496               	retlw	150
  3173  03E4  3496               	retlw	150
  3174  03E5  3495               	retlw	149
  3175  03E6  3494               	retlw	148
  3176  03E7  3493               	retlw	147
  3177  03E8  3493               	retlw	147
  3178  03E9  3492               	retlw	146
  3179  03EA  3491               	retlw	145
  3180  03EB  3490               	retlw	144
  3181  03EC  3490               	retlw	144
  3182  03ED  348F               	retlw	143
  3183  03EE  348E               	retlw	142
  3184  03EF  348D               	retlw	141
  3185  03F0  348C               	retlw	140
  3186  03F1  348C               	retlw	140
  3187  03F2  348B               	retlw	139
  3188  03F3  348A               	retlw	138
  3189  03F4  3489               	retlw	137
  3190  03F5  3488               	retlw	136
  3191  03F6  3488               	retlw	136
  3192  03F7  3487               	retlw	135
  3193  03F8  3486               	retlw	134
  3194  03F9  3485               	retlw	133
  3195  03FA  3485               	retlw	133
  3196  03FB  3484               	retlw	132
  3197  03FC  3483               	retlw	131
  3198  03FD  3482               	retlw	130
  3199  03FE  3481               	retlw	129
  3200  03FF  3481               	retlw	129
  3201  0400  3480               	retlw	128
  3202  0401  347F               	retlw	127
  3203  0402  347E               	retlw	126
  3204  0403  347E               	retlw	126
  3205  0404  347D               	retlw	125
  3206  0405  347C               	retlw	124
  3207  0406  347B               	retlw	123
  3208  0407  347A               	retlw	122
  3209  0408  347A               	retlw	122
  3210  0409  3479               	retlw	121
  3211  040A  3478               	retlw	120
  3212  040B  3477               	retlw	119
  3213  040C  3477               	retlw	119
  3214  040D  3476               	retlw	118
  3215  040E  3475               	retlw	117
  3216  040F  3474               	retlw	116
  3217  0410  3473               	retlw	115
  3218  0411  3473               	retlw	115
  3219  0412  3472               	retlw	114
  3220  0413  3471               	retlw	113
  3221  0414  3470               	retlw	112
  3222  0415  346F               	retlw	111
  3223  0416  346F               	retlw	111
  3224  0417  346E               	retlw	110
  3225  0418  346D               	retlw	109
  3226  0419  346C               	retlw	108
  3227  041A  346C               	retlw	108
  3228  041B  346B               	retlw	107
  3229  041C  346A               	retlw	106
  3230  041D  3469               	retlw	105
  3231  041E  3469               	retlw	105
  3232  041F  3468               	retlw	104
  3233  0420  3467               	retlw	103
  3234  0421  3466               	retlw	102
  3235  0422  3465               	retlw	101
  3236  0423  3465               	retlw	101
  3237  0424  3464               	retlw	100
  3238  0425  3463               	retlw	99
  3239  0426  3462               	retlw	98
  3240  0427  3462               	retlw	98
  3241  0428  3461               	retlw	97
  3242  0429  3460               	retlw	96
  3243  042A  345F               	retlw	95
  3244  042B  345F               	retlw	95
  3245  042C  345E               	retlw	94
  3246  042D  345D               	retlw	93
  3247  042E  345C               	retlw	92
  3248  042F  345C               	retlw	92
  3249  0430  345B               	retlw	91
  3250  0431  345A               	retlw	90
  3251  0432  3459               	retlw	89
  3252  0433  3459               	retlw	89
  3253  0434  3458               	retlw	88
  3254  0435  3457               	retlw	87
  3255  0436  3456               	retlw	86
  3256  0437  3456               	retlw	86
  3257  0438  3455               	retlw	85
  3258  0439  3454               	retlw	84
  3259  043A  3453               	retlw	83
  3260  043B  3453               	retlw	83
  3261  043C  3452               	retlw	82
  3262  043D  3451               	retlw	81
  3263  043E  3450               	retlw	80
  3264  043F  3450               	retlw	80
  3265  0440  344F               	retlw	79
  3266  0441  344E               	retlw	78
  3267  0442  344E               	retlw	78
  3268  0443  344D               	retlw	77
  3269  0444  344C               	retlw	76
  3270  0445  344B               	retlw	75
  3271  0446  344B               	retlw	75
  3272  0447  344A               	retlw	74
  3273  0448  3449               	retlw	73
  3274  0449  3449               	retlw	73
  3275  044A  3448               	retlw	72
  3276  044B  3447               	retlw	71
  3277  044C  3446               	retlw	70
  3278  044D  3446               	retlw	70
  3279  044E  3445               	retlw	69
  3280  044F  3444               	retlw	68
  3281  0450  3444               	retlw	68
  3282  0451  3443               	retlw	67
  3283  0452  3442               	retlw	66
  3284  0453  3442               	retlw	66
  3285  0454  3441               	retlw	65
  3286  0455  3440               	retlw	64
  3287  0456  3440               	retlw	64
  3288  0457  343F               	retlw	63
  3289  0458  343E               	retlw	62
  3290  0459  343E               	retlw	62
  3291  045A  343D               	retlw	61
  3292  045B  343C               	retlw	60
  3293  045C  343C               	retlw	60
  3294  045D  343B               	retlw	59
  3295  045E  343A               	retlw	58
  3296  045F  343A               	retlw	58
  3297  0460  3439               	retlw	57
  3298  0461  3438               	retlw	56
  3299  0462  3438               	retlw	56
  3300  0463  3437               	retlw	55
  3301  0464  3436               	retlw	54
  3302  0465  3436               	retlw	54
  3303  0466  3435               	retlw	53
  3304  0467  3434               	retlw	52
  3305  0468  3434               	retlw	52
  3306  0469  3433               	retlw	51
  3307  046A  3433               	retlw	51
  3308  046B  3432               	retlw	50
  3309  046C  3431               	retlw	49
  3310  046D  3431               	retlw	49
  3311  046E  3430               	retlw	48
  3312  046F  342F               	retlw	47
  3313  0470  342F               	retlw	47
  3314  0471  342E               	retlw	46
  3315  0472  342E               	retlw	46
  3316  0473  342D               	retlw	45
  3317  0474  342C               	retlw	44
  3318  0475  342C               	retlw	44
  3319  0476  342B               	retlw	43
  3320  0477  342B               	retlw	43
  3321  0478  342A               	retlw	42
  3322  0479  342A               	retlw	42
  3323  047A  3429               	retlw	41
  3324  047B  3428               	retlw	40
  3325  047C  3428               	retlw	40
  3326  047D  3427               	retlw	39
  3327  047E  3427               	retlw	39
  3328  047F  3426               	retlw	38
  3329  0480  3426               	retlw	38
  3330  0481  3425               	retlw	37
  3331  0482  3424               	retlw	36
  3332  0483  3424               	retlw	36
  3333  0484  3423               	retlw	35
  3334  0485  3423               	retlw	35
  3335  0486  3422               	retlw	34
  3336  0487  3422               	retlw	34
  3337  0488  3421               	retlw	33
  3338  0489  3421               	retlw	33
  3339  048A  3420               	retlw	32
  3340  048B  3420               	retlw	32
  3341  048C  341F               	retlw	31
  3342  048D  341F               	retlw	31
  3343  048E  341E               	retlw	30
  3344  048F  341E               	retlw	30
  3345  0490  341D               	retlw	29
  3346  0491  341D               	retlw	29
  3347  0492  341C               	retlw	28
  3348  0493  341C               	retlw	28
  3349  0494  341B               	retlw	27
  3350  0495  341B               	retlw	27
  3351  0496  341A               	retlw	26
  3352  0497  341A               	retlw	26
  3353  0498  3419               	retlw	25
  3354  0499  3419               	retlw	25
  3355  049A  3418               	retlw	24
  3356  049B  3418               	retlw	24
  3357  049C  3417               	retlw	23
  3358  049D  3417               	retlw	23
  3359  049E  3417               	retlw	23
  3360  049F  3416               	retlw	22
  3361  04A0  3416               	retlw	22
  3362  04A1  3415               	retlw	21
  3363  04A2  3415               	retlw	21
  3364  04A3  3414               	retlw	20
  3365  04A4  3414               	retlw	20
  3366  04A5  3414               	retlw	20
  3367  04A6  3413               	retlw	19
  3368  04A7  3413               	retlw	19
  3369  04A8  3412               	retlw	18
  3370  04A9  3412               	retlw	18
  3371  04AA  3411               	retlw	17
  3372  04AB  3411               	retlw	17
  3373  04AC  3411               	retlw	17
  3374  04AD  3410               	retlw	16
  3375  04AE  3410               	retlw	16
  3376  04AF  3410               	retlw	16
  3377  04B0  340F               	retlw	15
  3378  04B1  340F               	retlw	15
  3379  04B2  340E               	retlw	14
  3380  04B3  340E               	retlw	14
  3381  04B4  340E               	retlw	14
  3382  04B5  340D               	retlw	13
  3383  04B6  340D               	retlw	13
  3384  04B7  340D               	retlw	13
  3385  04B8  340C               	retlw	12
  3386  04B9  340C               	retlw	12
  3387  04BA  340C               	retlw	12
  3388  04BB  340B               	retlw	11
  3389  04BC  340B               	retlw	11
  3390  04BD  340B               	retlw	11
  3391  04BE  340A               	retlw	10
  3392  04BF  340A               	retlw	10
  3393  04C0  340A               	retlw	10
  3394  04C1  340A               	retlw	10
  3395  04C2  3409               	retlw	9
  3396  04C3  3409               	retlw	9
  3397  04C4  3409               	retlw	9
  3398  04C5  3408               	retlw	8
  3399  04C6  3408               	retlw	8
  3400  04C7  3408               	retlw	8
  3401  04C8  3408               	retlw	8
  3402  04C9  3407               	retlw	7
  3403  04CA  3407               	retlw	7
  3404  04CB  3407               	retlw	7
  3405  04CC  3407               	retlw	7
  3406  04CD  3406               	retlw	6
  3407  04CE  3406               	retlw	6
  3408  04CF  3406               	retlw	6
  3409  04D0  3406               	retlw	6
  3410  04D1  3405               	retlw	5
  3411  04D2  3405               	retlw	5
  3412  04D3  3405               	retlw	5
  3413  04D4  3405               	retlw	5
  3414  04D5  3404               	retlw	4
  3415  04D6  3404               	retlw	4
  3416  04D7  3404               	retlw	4
  3417  04D8  3404               	retlw	4
  3418  04D9  3404               	retlw	4
  3419  04DA  3404               	retlw	4
  3420  04DB  3403               	retlw	3
  3421  04DC  3403               	retlw	3
  3422  04DD  3403               	retlw	3
  3423  04DE  3403               	retlw	3
  3424  04DF  3403               	retlw	3
  3425  04E0  3402               	retlw	2
  3426  04E1  3402               	retlw	2
  3427  04E2  3402               	retlw	2
  3428  04E3  3402               	retlw	2
  3429  04E4  3402               	retlw	2
  3430  04E5  3402               	retlw	2
  3431  04E6  3402               	retlw	2
  3432  04E7  3402               	retlw	2
  3433  04E8  3401               	retlw	1
  3434  04E9  3401               	retlw	1
  3435  04EA  3401               	retlw	1
  3436  04EB  3401               	retlw	1
  3437  04EC  3401               	retlw	1
  3438  04ED  3401               	retlw	1
  3439  04EE  3401               	retlw	1
  3440  04EF  3401               	retlw	1
  3441  04F0  3401               	retlw	1
  3442  04F1  3401               	retlw	1
  3443  04F2  3400               	retlw	0
  3444  04F3  3400               	retlw	0
  3445  04F4  3400               	retlw	0
  3446  04F5  3400               	retlw	0
  3447  04F6  3400               	retlw	0
  3448  04F7  3400               	retlw	0
  3449  04F8  3400               	retlw	0
  3450  04F9  3400               	retlw	0
  3451  04FA  3400               	retlw	0
  3452  04FB  3400               	retlw	0
  3453  04FC  3400               	retlw	0
  3454  04FD  3400               	retlw	0
  3455  04FE  3400               	retlw	0
  3456  04FF  3400               	retlw	0
  3457  0500  3400               	retlw	0
  3458  0501  3400               	retlw	0
  3459  0502  3400               	retlw	0
  3460  0503  3400               	retlw	0
  3461  0504  3400               	retlw	0
  3462  0505  3400               	retlw	0
  3463  0506  3400               	retlw	0
  3464  0507  3400               	retlw	0
  3465  0508  3400               	retlw	0
  3466  0509  3400               	retlw	0
  3467  050A  3400               	retlw	0
  3468  050B  3400               	retlw	0
  3469  050C  3400               	retlw	0
  3470  050D  3400               	retlw	0
  3471  050E  3400               	retlw	0
  3472  050F  3401               	retlw	1
  3473  0510  3401               	retlw	1
  3474  0511  3401               	retlw	1
  3475  0512  3401               	retlw	1
  3476  0513  3401               	retlw	1
  3477  0514  3401               	retlw	1
  3478  0515  3401               	retlw	1
  3479  0516  3401               	retlw	1
  3480  0517  3401               	retlw	1
  3481  0518  3401               	retlw	1
  3482  0519  3401               	retlw	1
  3483  051A  3402               	retlw	2
  3484  051B  3402               	retlw	2
  3485  051C  3402               	retlw	2
  3486  051D  3402               	retlw	2
  3487  051E  3402               	retlw	2
  3488  051F  3402               	retlw	2
  3489  0520  3402               	retlw	2
  3490  0521  3403               	retlw	3
  3491  0522  3403               	retlw	3
  3492  0523  3403               	retlw	3
  3493  0524  3403               	retlw	3
  3494  0525  3403               	retlw	3
  3495  0526  3403               	retlw	3
  3496  0527  3404               	retlw	4
  3497  0528  3404               	retlw	4
  3498  0529  3404               	retlw	4
  3499  052A  3404               	retlw	4
  3500  052B  3404               	retlw	4
  3501  052C  3405               	retlw	5
  3502  052D  3405               	retlw	5
  3503  052E  3405               	retlw	5
  3504  052F  3405               	retlw	5
  3505  0530  3405               	retlw	5
  3506  0531  3406               	retlw	6
  3507  0532  3406               	retlw	6
  3508  0533  3406               	retlw	6
  3509  0534  3406               	retlw	6
  3510  0535  3407               	retlw	7
  3511  0536  3407               	retlw	7
  3512  0537  3407               	retlw	7
  3513  0538  3407               	retlw	7
  3514  0539  3408               	retlw	8
  3515  053A  3408               	retlw	8
  3516  053B  3408               	retlw	8
  3517  053C  3408               	retlw	8
  3518  053D  3409               	retlw	9
  3519  053E  3409               	retlw	9
  3520  053F  3409               	retlw	9
  3521  0540  340A               	retlw	10
  3522  0541  340A               	retlw	10
  3523  0542  340A               	retlw	10
  3524  0543  340B               	retlw	11
  3525  0544  340B               	retlw	11
  3526  0545  340B               	retlw	11
  3527  0546  340C               	retlw	12
  3528  0547  340C               	retlw	12
  3529  0548  340C               	retlw	12
  3530  0549  340D               	retlw	13
  3531  054A  340D               	retlw	13
  3532  054B  340D               	retlw	13
  3533  054C  340E               	retlw	14
  3534  054D  340E               	retlw	14
  3535  054E  340E               	retlw	14
  3536  054F  340F               	retlw	15
  3537  0550  340F               	retlw	15
  3538  0551  340F               	retlw	15
  3539  0552  3410               	retlw	16
  3540  0553  3410               	retlw	16
  3541  0554  3410               	retlw	16
  3542  0555  3411               	retlw	17
  3543  0556  3411               	retlw	17
  3544  0557  3412               	retlw	18
  3545  0558  3412               	retlw	18
  3546  0559  3412               	retlw	18
  3547  055A  3413               	retlw	19
  3548  055B  3413               	retlw	19
  3549  055C  3414               	retlw	20
  3550  055D  3414               	retlw	20
  3551  055E  3415               	retlw	21
  3552  055F  3415               	retlw	21
  3553  0560  3415               	retlw	21
  3554  0561  3416               	retlw	22
  3555  0562  3416               	retlw	22
  3556  0563  3417               	retlw	23
  3557  0564  3417               	retlw	23
  3558  0565  3418               	retlw	24
  3559  0566  3418               	retlw	24
  3560  0567  3419               	retlw	25
  3561  0568  3419               	retlw	25
  3562  0569  3419               	retlw	25
  3563  056A  341A               	retlw	26
  3564  056B  341A               	retlw	26
  3565  056C  341B               	retlw	27
  3566  056D  341B               	retlw	27
  3567  056E  341C               	retlw	28
  3568  056F  341C               	retlw	28
  3569  0570  341D               	retlw	29
  3570  0571  341D               	retlw	29
  3571  0572  341E               	retlw	30
  3572  0573  341E               	retlw	30
  3573  0574  341F               	retlw	31
  3574  0575  341F               	retlw	31
  3575  0576  3420               	retlw	32
  3576  0577  3420               	retlw	32
  3577  0578  3421               	retlw	33
  3578  0579  3421               	retlw	33
  3579  057A  3422               	retlw	34
  3580  057B  3423               	retlw	35
  3581  057C  3423               	retlw	35
  3582  057D  3424               	retlw	36
  3583  057E  3424               	retlw	36
  3584  057F  3425               	retlw	37
  3585  0580  3425               	retlw	37
  3586  0581  3426               	retlw	38
  3587  0582  3426               	retlw	38
  3588  0583  3427               	retlw	39
  3589  0584  3428               	retlw	40
  3590  0585  3428               	retlw	40
  3591  0586  3429               	retlw	41
  3592  0587  3429               	retlw	41
  3593  0588  342A               	retlw	42
  3594  0589  342A               	retlw	42
  3595  058A  342B               	retlw	43
  3596  058B  342C               	retlw	44
  3597  058C  342C               	retlw	44
  3598  058D  342D               	retlw	45
  3599  058E  342D               	retlw	45
  3600  058F  342E               	retlw	46
  3601  0590  342F               	retlw	47
  3602  0591  342F               	retlw	47
  3603  0592  3430               	retlw	48
  3604  0593  3430               	retlw	48
  3605  0594  3431               	retlw	49
  3606  0595  3432               	retlw	50
  3607  0596  3432               	retlw	50
  3608  0597  3433               	retlw	51
  3609  0598  3433               	retlw	51
  3610  0599  3434               	retlw	52
  3611  059A  3435               	retlw	53
  3612  059B  3435               	retlw	53
  3613  059C  3436               	retlw	54
  3614  059D  3437               	retlw	55
  3615  059E  3437               	retlw	55
  3616  059F  3438               	retlw	56
  3617  05A0  3439               	retlw	57
  3618  05A1  3439               	retlw	57
  3619  05A2  343A               	retlw	58
  3620  05A3  343B               	retlw	59
  3621  05A4  343B               	retlw	59
  3622  05A5  343C               	retlw	60
  3623  05A6  343D               	retlw	61
  3624  05A7  343D               	retlw	61
  3625  05A8  343E               	retlw	62
  3626  05A9  343F               	retlw	63
  3627  05AA  343F               	retlw	63
  3628  05AB  3440               	retlw	64
  3629  05AC  3441               	retlw	65
  3630  05AD  3441               	retlw	65
  3631  05AE  3442               	retlw	66
  3632  05AF  3443               	retlw	67
  3633  05B0  3443               	retlw	67
  3634  05B1  3444               	retlw	68
  3635  05B2  3445               	retlw	69
  3636  05B3  3445               	retlw	69
  3637  05B4  3446               	retlw	70
  3638  05B5  3447               	retlw	71
  3639  05B6  3448               	retlw	72
  3640  05B7  3448               	retlw	72
  3641  05B8  3449               	retlw	73
  3642  05B9  344A               	retlw	74
  3643  05BA  344A               	retlw	74
  3644  05BB  344B               	retlw	75
  3645  05BC  344C               	retlw	76
  3646  05BD  344D               	retlw	77
  3647  05BE  344D               	retlw	77
  3648  05BF  344E               	retlw	78
  3649  05C0  344F               	retlw	79
  3650  05C1  344F               	retlw	79
  3651  05C2  3450               	retlw	80
  3652  05C3  3451               	retlw	81
  3653  05C4  3452               	retlw	82
  3654  05C5  3452               	retlw	82
  3655  05C6  3453               	retlw	83
  3656  05C7  3454               	retlw	84
  3657  05C8  3455               	retlw	85
  3658  05C9  3455               	retlw	85
  3659  05CA  3456               	retlw	86
  3660  05CB  3457               	retlw	87
  3661  05CC  3457               	retlw	87
  3662  05CD  3458               	retlw	88
  3663  05CE  3459               	retlw	89
  3664  05CF  345A               	retlw	90
  3665  05D0  345A               	retlw	90
  3666  05D1  345B               	retlw	91
  3667  05D2  345C               	retlw	92
  3668  05D3  345D               	retlw	93
  3669  05D4  345D               	retlw	93
  3670  05D5  345E               	retlw	94
  3671  05D6  345F               	retlw	95
  3672  05D7  3460               	retlw	96
  3673  05D8  3460               	retlw	96
  3674  05D9  3461               	retlw	97
  3675  05DA  3462               	retlw	98
  3676  05DB  3463               	retlw	99
  3677  05DC  3464               	retlw	100
  3678  05DD  3464               	retlw	100
  3679  05DE  3465               	retlw	101
  3680  05DF  3466               	retlw	102
  3681  05E0  3467               	retlw	103
  3682  05E1  3467               	retlw	103
  3683  05E2  3468               	retlw	104
  3684  05E3  3469               	retlw	105
  3685  05E4  346A               	retlw	106
  3686  05E5  346A               	retlw	106
  3687  05E6  346B               	retlw	107
  3688  05E7  346C               	retlw	108
  3689  05E8  346D               	retlw	109
  3690  05E9  346E               	retlw	110
  3691  05EA  346E               	retlw	110
  3692  05EB  346F               	retlw	111
  3693  05EC  3470               	retlw	112
  3694  05ED  3471               	retlw	113
  3695  05EE  3471               	retlw	113
  3696  05EF  3472               	retlw	114
  3697  05F0  3473               	retlw	115
  3698  05F1  3474               	retlw	116
  3699  05F2  3475               	retlw	117
  3700  05F3  3475               	retlw	117
  3701  05F4  3476               	retlw	118
  3702  05F5  3477               	retlw	119
  3703  05F6  3478               	retlw	120
  3704  05F7  3478               	retlw	120
  3705  05F8  3479               	retlw	121
  3706  05F9  347A               	retlw	122
  3707  05FA  347B               	retlw	123
  3708  05FB  347C               	retlw	124
  3709  05FC  347C               	retlw	124
  3710  05FD  347D               	retlw	125
  3711  05FE  347E               	retlw	126
  3712  05FF  347F               	retlw	127
  3713  0600  3480               	retlw	128
  3714  0601                     __end_of_sine:	
  3715  0601                     _mTouch_pressThreshold:	
  3716  0601  340C               	retlw	12
  3717  0602  3400               	retlw	0
  3718  0603  3464               	retlw	100
  3719  0604  3400               	retlw	0
  3720  0605                     __end_of_mTouch_pressThreshold:	
  3721  0605                     _mTouch_releaseThreshold:	
  3722  0605  3406               	retlw	6
  3723  0606  3400               	retlw	0
  3724  0607  3432               	retlw	50
  3725  0608  3400               	retlw	0
  3726  0609                     __end_of_mTouch_releaseThreshold:	
  3727  0609                     _mTouch_ScanA:	
  3728  0609  3406               	retlw	(fp__mTouch_ScanA_0-0)& (0+255)
  3729  060A  3404               	retlw	(fp__mTouch_ScanA_1-0)& (0+255)
  3730  060B                     __end_of_mTouch_ScanA:	
  3731  060B                     _mTouch_ScanB:	
  3732  060B  340A               	retlw	(fp__mTouch_ScanB_0-0)& (0+255)
  3733  060C  3408               	retlw	(fp__mTouch_ScanB_1-0)& (0+255)
  3734  060D                     __end_of_mTouch_ScanB:	
  3735  2050                     _a	set	8272
  3736  0016                     _TMR1	set	22
  3737  000C                     _PORTA	set	12
  3738  000D                     _PORTB	set	13
  3739  000E                     _PORTC	set	14
  3740  000F                     _PORTD	set	15
  3741  0010                     _PORTE	set	16
  3742  0018                     _T1CON	set	24
  3743  0015                     _TMR0	set	21
  3744  005F                     _GIE	set	95
  3745  008D                     _RCIF	set	141
  3746  0078                     _RD0	set	120
  3747  005D                     _TMR0IE	set	93
  3748  005A                     _TMR0IF	set	90
  3749  009E                     _ADCON1bits	set	158
  3750  009C                     _ADRESH	set	156
  3751  009B                     _ADRESL	set	155
  3752  0099                     _OSCCON	set	153
  3753  008C                     _TRISA	set	140
  3754  008D                     _TRISB	set	141
  3755  008E                     _TRISC	set	142
  3756  008F                     _TRISD	set	143
  3757  0090                     _TRISE	set	144
  3758  04E9                     _GO_nDONE	set	1257
  3759  04A8                     _PS0	set	1192
  3760  04A9                     _PS1	set	1193
  3761  04AA                     _PS2	set	1194
  3762  04AB                     _PSA	set	1195
  3763  04AD                     _T0CS	set	1197
  3764  04AC                     _T0SE	set	1196
  3765  0488                     _TMR1IE	set	1160
  3766  018C                     _ANSELA	set	396
  3767  018D                     _ANSELB	set	397
  3768  018F                     _ANSELD	set	399
  3769  0199                     _RCREG	set	409
  3770  019B                     _SPBRG	set	411
  3771  019A                     _TXREG	set	410
  3772  0CFB                     _BRG16	set	3323
  3773  0CF2                     _BRGH	set	3314
  3774  0CEC                     _CREN	set	3308
  3775  0CE9                     _OERR	set	3305
  3776  0CEF                     _SPEN	set	3311
  3777  0CF4                     _SYNC	set	3316
  3778  0CF1                     _TRMT	set	3313
  3779  0CF5                     _TXEN	set	3317
  3780  060D                     __stringdata:	
  3781  060D                     STR_1:	
  3782  060D  342D               	retlw	45	;'-'
  3783  060E  342D               	retlw	45	;'-'
  3784  060F  342D               	retlw	45	;'-'
  3785  0610  342D               	retlw	45	;'-'
  3786  0611  342D               	retlw	45	;'-'
  3787  0612  342D               	retlw	45	;'-'
  3788  0613  342D               	retlw	45	;'-'
  3789  0614  342D               	retlw	45	;'-'
  3790  0615  342D               	retlw	45	;'-'
  3791  0616  342D               	retlw	45	;'-'
  3792  0617  342D               	retlw	45	;'-'
  3793  0618  342D               	retlw	45	;'-'
  3794  0619  342D               	retlw	45	;'-'
  3795  061A  342D               	retlw	45	;'-'
  3796  061B  342D               	retlw	45	;'-'
  3797  061C  342D               	retlw	45	;'-'
  3798  061D  342D               	retlw	45	;'-'
  3799  061E  342D               	retlw	45	;'-'
  3800  061F  342D               	retlw	45	;'-'
  3801  0620  342D               	retlw	45	;'-'
  3802  0621  342D               	retlw	45	;'-'
  3803  0622  342D               	retlw	45	;'-'
  3804  0623  342D               	retlw	45	;'-'
  3805  0624  342D               	retlw	45	;'-'
  3806  0625  342D               	retlw	45	;'-'
  3807  0626  342D               	retlw	45	;'-'
  3808  0627  342D               	retlw	45	;'-'
  3809  0628  3420               	retlw	32	;' '
  3810  0629  340A               	retlw	10
  3811  062A  3420               	retlw	32	;' '
  3812  062B  340A               	retlw	10
  3813  062C  3420               	retlw	32	;' '
  3814  062D  3470               	retlw	112	;'p'
  3815  062E  3472               	retlw	114	;'r'
  3816  062F  346F               	retlw	111	;'o'
  3817  0630  3467               	retlw	103	;'g'
  3818  0631  3472               	retlw	114	;'r'
  3819  0632  3461               	retlw	97	;'a'
  3820  0633  346D               	retlw	109	;'m'
  3821  0634  3420               	retlw	32	;' '
  3822  0635  3469               	retlw	105	;'i'
  3823  0636  346E               	retlw	110	;'n'
  3824  0637  3469               	retlw	105	;'i'
  3825  0638  3474               	retlw	116	;'t'
  3826  0639  3469               	retlw	105	;'i'
  3827  063A  346C               	retlw	108	;'l'
  3828  063B  3461               	retlw	97	;'a'
  3829  063C  3469               	retlw	105	;'i'
  3830  063D  347A               	retlw	122	;'z'
  3831  063E  3465               	retlw	101	;'e'
  3832  063F  3464               	retlw	100	;'d'
  3833  0640  3420               	retlw	32	;' '
  3834  0641  340A               	retlw	10
  3835  0642  3420               	retlw	32	;' '
  3836  0643  340A               	retlw	10
  3837  0644  3400               	retlw	0
  3838  0645                     __end_of__stringdata:	
  3839                           
  3840                           ; #config settings
  3841  0000                     
  3842                           	psect	cinit
  3843  009B                     start_initialization:	
  3844  009B                     __initialization:	
  3845                           
  3846                           ; Clear objects allocated to COMMON
  3847  009B  01FC               	clrf	__pbssCOMMON& (0+127)
  3848  009C  01FD               	clrf	(__pbssCOMMON+1)& (0+127)
  3849                           
  3850                           ; Clear objects allocated to BANK0h
  3851  009D  304D               	movlw	low __pbssBANK0h
  3852  009E  0084               	movwf	4
  3853  009F  3000               	movlw	high __pbssBANK0h
  3854  00A0  0085               	movwf	5
  3855  00A1  3018               	movlw	24
  3856  00A2  00FE               	movwf	btemp
  3857  00A3  3000               	movlw	0
  3858  00A4  00FF               	movwf	btemp+1
  3859  00A5  3181  2137  3180   	fcall	clear_ram0
  3860                           
  3861                           ; Clear objects allocated to BANK0l
  3862  00A8  3065               	movlw	low __pbssBANK0l
  3863  00A9  0084               	movwf	4
  3864  00AA  3000               	movlw	high __pbssBANK0l
  3865  00AB  0085               	movwf	5
  3866  00AC  300A               	movlw	10
  3867  00AD  00FE               	movwf	btemp
  3868  00AE  3000               	movlw	0
  3869  00AF  00FF               	movwf	btemp+1
  3870  00B0  3181  2137  3180   	fcall	clear_ram0
  3871                           
  3872                           ; Initialize objects allocated to BANK0h
  3873  00B3  3181  2175  3180   	fcall	__pidataBANK0h	;fetch initializer
  3874  00B6  00A1               	movwf	__pdataBANK0h& (0+127)
  3875  00B7  3181  2176  3180   	fcall	__pidataBANK0h+1	;fetch initializer
  3876  00BA  00A2               	movwf	(__pdataBANK0h+1)& (0+127)
  3877                           
  3878                           ; Initialize objects allocated to BANK0l
  3879  00BB  3187  27FF         	fcall	__pidataBANK0l	;fetch initializer
  3880  00BD  00EF               	movwf	__pdataBANK0l& (0+127)
  3881  00BE                     end_of_initialization:	
  3882                           ;End of C runtime variable initialization code
  3883                           
  3884  00BE                     __end_of__initialization:	
  3885  00BE  0020               	movlb	0
  3886  00BF  318E  2E3A         	ljmp	_main	;jump to C main() function
  3887                           
  3888                           	psect	bssCOMMON
  3889  007C                     __pbssCOMMON:	
  3890  007C                     _mTouch_currentAcqData:	
  3891  007C                     	ds	1
  3892  007D                     _mTouch_currentScan:	
  3893  007D                     	ds	1
  3894                           
  3895                           	psect	bssBANK0h
  3896  004D                     __pbssBANK0h:	
  3897  004D                     _mTouch_average:	
  3898  004D                     	ds	4
  3899  0051                     _mTouch_sensorData:	
  3900  0051                     	ds	4
  3901  0055                     _mTouch_state:	
  3902  0055                     	ds	1
  3903  0056                     _mTouch_acqData:	
  3904  0056                     	ds	8
  3905  005E                     _mTouch_stateVars:	
  3906  005E                     	ds	7
  3907                           
  3908                           	psect	dataBANK0h
  3909  0021                     __pdataBANK0h:	
  3910  0021                     _enable:	
  3911  0021                     	ds	1
  3912  0022                     _led_number:	
  3913  0022                     	ds	1
  3914                           
  3915                           	psect	bssBANK0l
  3916  0065                     __pbssBANK0l:	
  3917  0065                     _led_data:	
  3918  0065                     	ds	4
  3919  0069                     _count:	
  3920  0069                     	ds	2
  3921  006B                     _mTouch_lastResult:	
  3922  006B                     	ds	2
  3923  006D                     _mTouch_delayCount:	
  3924  006D                     	ds	1
  3925  006E                     _portd_shadow:	
  3926  006E                     	ds	1
  3927                           
  3928                           	psect	dataBANK0l
  3929  006F                     __pdataBANK0l:	
  3930  006F                     _mTouch_jitter:	
  3931  006F                     	ds	1
  3932                           
  3933                           	psect	clrtext
  3934  0137                     clear_ram0:	
  3935                           ;	Called with FSR0 containing the base address, and
  3936                           ;	btemp/btemp+1 has the size to clear
  3937                           
  3938  0137  0064               	clrwdt	;clear the watchdog before getting into this loop
  3939  0138                     clrloop0:	
  3940  0138  0180               	clrf	0	;clear RAM location pointed to by FSR
  3941  0139  3101               	addfsr 0,1
  3942  013A  3001               	movlw	1
  3943  013B  02FE               	subwf	126,f
  3944  013C  3000               	movlw	0
  3945  013D  3BFF               	subwfb	127,f
  3946  013E  087F               	movf	127,w
  3947  013F  047E               	iorwf	126,w
  3948  0140  1903               	btfsc	3,2
  3949  0141  3400               	retlw	0	;all done for this memory range, return
  3950  0142  2938               	goto	clrloop0	;have we reached the end yet?
  3951                           
  3952                           	psect	cstackCOMMON
  3953  0070                     __pcstackCOMMON:	
  3954  0070                     ?_mTouch_ChangeMode:	
  3955  0070                     ??_mTouch_ChangeMode:	
  3956                           ; 0 bytes @ 0x0
  3957                           
  3958  0070                     ?_mTouch_ScanA_0:	
  3959                           ; 0 bytes @ 0x0
  3960                           
  3961  0070                     ??_mTouch_ScanA_0:	
  3962                           ; 0 bytes @ 0x0
  3963                           
  3964  0070                     ?_mTouch_ScanA_1:	
  3965                           ; 0 bytes @ 0x0
  3966                           
  3967  0070                     ??_mTouch_ScanA_1:	
  3968                           ; 0 bytes @ 0x0
  3969                           
  3970  0070                     ?_mTouch_ScanB_0:	
  3971                           ; 0 bytes @ 0x0
  3972                           
  3973  0070                     ??_mTouch_ScanB_0:	
  3974                           ; 0 bytes @ 0x0
  3975                           
  3976  0070                     ?_mTouch_ScanB_1:	
  3977                           ; 0 bytes @ 0x0
  3978                           
  3979  0070                     ??_mTouch_ScanB_1:	
  3980                           ; 0 bytes @ 0x0
  3981                           
  3982  0070                     ?_mTouch_WaitForGoDone:	
  3983                           ; 0 bytes @ 0x0
  3984                           
  3985  0070                     ??_mTouch_WaitForGoDone:	
  3986                           ; 0 bytes @ 0x0
  3987                           
  3988  0070                     ?_mTouch_StoreScanA:	
  3989                           ; 0 bytes @ 0x0
  3990                           
  3991  0070                     ??_mTouch_StoreScanA:	
  3992                           ; 0 bytes @ 0x0
  3993                           
  3994  0070                     ?_mTouch_StoreScanB:	
  3995                           ; 0 bytes @ 0x0
  3996                           
  3997  0070                     ??_mTouch_StoreScanB:	
  3998                           ; 0 bytes @ 0x0
  3999                           
  4000  0070                     ?_mTouch_DecimationFilter:	
  4001                           ; 0 bytes @ 0x0
  4002                           
  4003  0070                     ??_mTouch_DecimationFilter:	
  4004                           ; 0 bytes @ 0x0
  4005                           
  4006  0070                     ?_ConfigureOscillator:	
  4007                           ; 0 bytes @ 0x0
  4008                           
  4009  0070                     ?_InitApp:	
  4010                           ; 0 bytes @ 0x0
  4011                           
  4012  0070                     ?_UART_Init:	
  4013                           ; 0 bytes @ 0x0
  4014                           
  4015  0070                     ?_mTouch_Scan:	
  4016                           ; 0 bytes @ 0x0
  4017                           
  4018  0070                     ?_main:	
  4019                           ; 0 bytes @ 0x0
  4020                           
  4021  0070                     ?_putch:	
  4022                           ; 0 bytes @ 0x0
  4023                           
  4024  0070                     ?_UART_Read_No_Block:	
  4025                           ; 0 bytes @ 0x0
  4026                           
  4027  0070                     ?_UART_Read:	
  4028                           ; 1 bytes @ 0x0
  4029                           
  4030                           
  4031                           ; 1 bytes @ 0x0
  4032  0070                     	ds	5
  4033  0075                     mTouch_DecimationFilter@result:	
  4034                           
  4035                           ; 2 bytes @ 0x5
  4036  0075                     	ds	7
  4037                           
  4038                           	psect	cstackBANK0h
  4039  0031                     __pcstackBANK0h:	
  4040  0031                     ??_mTouch_Scan:	
  4041                           
  4042                           ; 0 bytes @ 0x0
  4043  0031                     	ds	4
  4044  0035                     ??_ConfigureOscillator:	
  4045  0035                     ??_InitApp:	
  4046                           ; 0 bytes @ 0x4
  4047                           
  4048  0035                     ??_UART_Read_No_Block:	
  4049                           ; 0 bytes @ 0x4
  4050                           
  4051  0035                     ??_UART_Read:	
  4052                           ; 0 bytes @ 0x4
  4053                           
  4054  0035                     ??_UART_Init:	
  4055                           ; 0 bytes @ 0x4
  4056                           
  4057  0035                     ??_putch:	
  4058                           ; 0 bytes @ 0x4
  4059                           
  4060  0035                     ?___bmul:	
  4061                           ; 0 bytes @ 0x4
  4062                           
  4063  0035                     ?___wmul:	
  4064                           ; 1 bytes @ 0x4
  4065                           
  4066  0035                     putch@c:	
  4067                           ; 2 bytes @ 0x4
  4068                           
  4069  0035                     ___bmul@multiplicand:	
  4070                           ; 1 bytes @ 0x4
  4071                           
  4072  0035                     ___wmul@multiplier:	
  4073                           ; 1 bytes @ 0x4
  4074                           
  4075                           
  4076                           ; 2 bytes @ 0x4
  4077  0035                     	ds	1
  4078  0036                     ??___bmul:	
  4079  0036                     ?_printf:	
  4080                           ; 0 bytes @ 0x5
  4081                           
  4082  0036                     printf@f:	
  4083                           ; 2 bytes @ 0x5
  4084                           
  4085                           
  4086                           ; 2 bytes @ 0x5
  4087  0036                     	ds	1
  4088  0037                     ___bmul@product:	
  4089  0037                     UART_Read_No_Block@i:	
  4090                           ; 1 bytes @ 0x6
  4091                           
  4092  0037                     ___wmul@multiplicand:	
  4093                           ; 2 bytes @ 0x6
  4094                           
  4095                           
  4096                           ; 2 bytes @ 0x6
  4097  0037                     	ds	1
  4098  0038                     ??_printf:	
  4099  0038                     ___bmul@multiplier:	
  4100                           ; 0 bytes @ 0x7
  4101                           
  4102                           
  4103                           ; 1 bytes @ 0x7
  4104  0038                     	ds	1
  4105  0039                     ??___wmul:	
  4106  0039                     ___wmul@product:	
  4107                           ; 0 bytes @ 0x8
  4108                           
  4109                           
  4110                           ; 2 bytes @ 0x8
  4111  0039                     	ds	2
  4112  003B                     printf@ap:	
  4113                           
  4114                           ; 1 bytes @ 0xA
  4115  003B                     	ds	1
  4116  003C                     printf@c:	
  4117                           
  4118                           ; 1 bytes @ 0xB
  4119  003C                     	ds	1
  4120  003D                     ??_main:	
  4121                           
  4122                           ; 0 bytes @ 0xC
  4123  003D                     	ds	7
  4124  0044                     main@loop_count:	
  4125                           
  4126                           ; 2 bytes @ 0x13
  4127  0044                     	ds	2
  4128  0046                     main@temp_red:	
  4129                           
  4130                           ; 1 bytes @ 0x15
  4131  0046                     	ds	1
  4132  0047                     main@temp_green:	
  4133                           
  4134                           ; 1 bytes @ 0x16
  4135  0047                     	ds	1
  4136  0048                     main@temp_blue:	
  4137                           
  4138                           ; 1 bytes @ 0x17
  4139  0048                     	ds	1
  4140  0049                     main@recived_byte:	
  4141                           
  4142                           ; 1 bytes @ 0x18
  4143  0049                     	ds	1
  4144  004A                     main@led_index:	
  4145                           
  4146                           ; 1 bytes @ 0x19
  4147  004A                     	ds	1
  4148  004B                     main@x:	
  4149                           
  4150                           ; 1 bytes @ 0x1A
  4151  004B                     	ds	1
  4152  004C                     main@x_268:	
  4153                           
  4154                           ; 1 bytes @ 0x1B
  4155  004C                     	ds	1
  4156                           
  4157                           	psect	maintext
  4158  0E3A                     __pmaintext:	
  4159 ;;
  4160 ;;Main: autosize = 0, tempsize = 7, incstack = 0, save=0
  4161 ;;
  4162 ;; *************** function _main *****************
  4163 ;; Defined at:
  4164 ;;		line 65 in file "main.c"
  4165 ;; Parameters:    Size  Location     Type
  4166 ;;		None
  4167 ;; Auto vars:     Size  Location     Type
  4168 ;;  x               1   27[BANK0h] unsigned char 
  4169 ;;  x               1   26[BANK0h] unsigned char 
  4170 ;;  led_index       1   25[BANK0h] unsigned char 
  4171 ;;  recived_byte    1   24[BANK0h] unsigned char 
  4172 ;;  temp_blue       1   23[BANK0h] unsigned char 
  4173 ;;  temp_green      1   22[BANK0h] unsigned char 
  4174 ;;  temp_red        1   21[BANK0h] unsigned char 
  4175 ;;  loop_count      2   19[BANK0h] unsigned int 
  4176 ;; Return value:  Size  Location     Type
  4177 ;;		None               void
  4178 ;; Registers used:
  4179 ;;		wreg, fsr0l, fsr0h, fsr1l, fsr1h, status,2, status,0, pclath, cstack
  4180 ;; Tracked objects:
  4181 ;;		On entry : 17F/0
  4182 ;;		On exit  : 0/0
  4183 ;;		Unchanged: 0/0
  4184 ;; Data sizes:     COMMON  BANK0h  BANK0l   BANK1   BANK2   BANK3   BANK4   BANK5   BANK6   BANK7   BANK8   BANK9  BANK1
      +0  BANK11  BANK12
  4185 ;;      Params:         0       0       0       0       0       0       0       0       0       0       0       0       
      +0       0       0
  4186 ;;      Locals:         0       9       0       0       0       0       0       0       0       0       0       0       
      +0       0       0
  4187 ;;      Temps:          0       7       0       0       0       0       0       0       0       0       0       0       
      +0       0       0
  4188 ;;      Totals:         0      16       0       0       0       0       0       0       0       0       0       0       
      +0       0       0
  4189 ;;Total ram usage:       16 bytes
  4190 ;; Hardware stack levels required when called:    4
  4191 ;; This function calls:
  4192 ;;		_ConfigureOscillator
  4193 ;;		_InitApp
  4194 ;;		_UART_Read
  4195 ;;		_UART_Read_No_Block
  4196 ;;		___bmul
  4197 ;;		___wmul
  4198 ;;		_printf
  4199 ;; This function is called by:
  4200 ;;		Startup code after reset
  4201 ;; This function uses a non-reentrant model
  4202 ;;
  4203                           
  4204                           
  4205                           ;psect for function _main
  4206  0E3A                     _main:	
  4207                           
  4208                           ;main.c: 72: ConfigureOscillator();
  4209                           
  4210                           ;incstack = 0
  4211                           ; Regs used in _main: [wreg-fsr1h+status,2+status,0+pclath+cstack]
  4212  0E3A  3181  2171  318E   	fcall	_ConfigureOscillator
  4213                           
  4214                           ;main.c: 75: InitApp();
  4215  0E3D  3186  26C7  318E   	fcall	_InitApp
  4216                           
  4217                           ;main.c: 79: GIE =0;
  4218  0E40  138B               	bcf	11,7	;volatile
  4219                           
  4220                           ;main.c: 81: printf("--------------------------- \n \n program initilaized \n \n");
  4221  0E41  300D               	movlw	low (STR_1| (0+32768))
  4222  0E42  0020               	movlb	0	; select bank0
  4223  0E43  00B6               	movwf	printf@f
  4224  0E44  3086               	movlw	high (STR_1| (0+32768))
  4225  0E45  00B7               	movwf	printf@f+1
  4226  0E46  3181  210C  318E   	fcall	_printf
  4227                           
  4228                           ;main.c: 94: unsigned int loop_count = 0;
  4229  0E49  0020               	movlb	0	; select bank0
  4230  0E4A  01C4               	clrf	main@loop_count
  4231  0E4B  01C5               	clrf	main@loop_count+1
  4232  0E4C                     l1966:	
  4233                           ;main.c: 95: while(1)
  4234                           
  4235                           
  4236                           ;main.c: 96: {
  4237                           ;main.c: 97: byte_count = (led_number*3);
  4238  0E4C  3003               	movlw	3
  4239  0E4D  00BD               	movwf	??_main
  4240  0E4E  083D               	movf	??_main,w
  4241  0E4F  00B5               	movwf	___bmul@multiplicand
  4242  0E50  0822               	movf	_led_number,w
  4243  0E51  3187  27ED  318E   	fcall	___bmul
  4244  0E54  0020               	movlb	0	; select bank0
  4245  0E55  00BE               	movwf	??_main+1
  4246  0E56  083E               	movf	??_main+1,w
  4247  0E57  00A0               	movwf	32
  4248                           
  4249                           ;main.c: 99: char recived_byte = UART_Read_No_Block();
  4250  0E58  3187  27AF  318E   	fcall	_UART_Read_No_Block
  4251  0E5B  0020               	movlb	0	; select bank0
  4252  0E5C  00BD               	movwf	??_main
  4253  0E5D  083D               	movf	??_main,w
  4254  0E5E  00C9               	movwf	main@recived_byte
  4255                           
  4256                           ;main.c: 101: if(recived_byte == 0xff)
  4257  0E5F  0849               	movf	main@recived_byte,w
  4258  0E60  3AFF               	xorlw	255
  4259  0E61  1D03               	skipz
  4260  0E62  2F88               	goto	l2002
  4261                           
  4262                           ;main.c: 102: {
  4263                           ;main.c: 103: for(unsigned char x=0; x< (led_number*3); x+=3)
  4264  0E63  01CB               	clrf	main@x
  4265  0E64                     l1978:	
  4266  0E64  0822               	movf	_led_number,w
  4267  0E65  00BD               	movwf	??_main
  4268  0E66  01BE               	clrf	??_main+1
  4269  0E67  083D               	movf	??_main,w
  4270  0E68  00B5               	movwf	___wmul@multiplier
  4271  0E69  083E               	movf	??_main+1,w
  4272  0E6A  00B6               	movwf	___wmul@multiplier+1
  4273  0E6B  3003               	movlw	3
  4274  0E6C  00B7               	movwf	___wmul@multiplicand
  4275  0E6D  3000               	movlw	0
  4276  0E6E  00B8               	movwf	___wmul@multiplicand+1
  4277  0E6F  3187  27CF  318E   	fcall	___wmul
  4278  0E72  0020               	movlb	0	; select bank0
  4279  0E73  0836               	movf	?___wmul+1,w
  4280  0E74  3A80               	xorlw	128
  4281  0E75  3C80               	sublw	128
  4282  0E76  1D03               	skipz
  4283  0E77  2E7A               	goto	u985
  4284  0E78  0835               	movf	?___wmul,w
  4285  0E79  024B               	subwf	main@x,w
  4286  0E7A                     u985:	
  4287  0E7A  1803               	btfsc	3,0
  4288  0E7B  2EBC               	goto	l1980
  4289                           
  4290                           ;main.c: 104: {
  4291                           ;main.c: 105: a[x] = 255;
  4292  0E7C  0020               	movlb	0	; select bank0
  4293  0E7D  084B               	movf	main@x,w
  4294  0E7E  3E50               	addlw	80
  4295  0E7F  00BD               	movwf	??_main
  4296  0E80  01BE               	clrf	??_main+1
  4297  0E81  3020               	movlw	32
  4298  0E82  3DBE               	addwfc	??_main+1,f
  4299  0E83  083D               	movf	??_main,w
  4300  0E84  0086               	movwf	6
  4301  0E85  083E               	movf	??_main+1,w
  4302  0E86  0087               	movwf	7
  4303  0E87  30FF               	movlw	255
  4304  0E88  0081               	movwf	1
  4305                           
  4306                           ;main.c: 106: a[x+1] = 255;
  4307  0E89  084B               	movf	main@x,w
  4308  0E8A  3E01               	addlw	1
  4309  0E8B  00BD               	movwf	??_main
  4310  0E8C  3000               	movlw	0
  4311  0E8D  1803               	skipnc
  4312  0E8E  3001               	movlw	1
  4313  0E8F  00BE               	movwf	??_main+1
  4314  0E90  3050               	movlw	80
  4315  0E91  00BF               	movwf	??_main+2
  4316  0E92  3020               	movlw	32
  4317  0E93  00C0               	movwf	??_main+3
  4318  0E94  083D               	movf	??_main,w
  4319  0E95  073F               	addwf	??_main+2,w
  4320  0E96  00C1               	movwf	??_main+4
  4321  0E97  083E               	movf	??_main+1,w
  4322  0E98  3D40               	addwfc	??_main+3,w
  4323  0E99  00C2               	movwf	??_main+5
  4324  0E9A  0841               	movf	??_main+4,w
  4325  0E9B  0086               	movwf	6
  4326  0E9C  0842               	movf	??_main+5,w
  4327  0E9D  0087               	movwf	7
  4328  0E9E  30FF               	movlw	255
  4329  0E9F  0081               	movwf	1
  4330                           
  4331                           ;main.c: 107: a[x+2] = 255;
  4332  0EA0  084B               	movf	main@x,w
  4333  0EA1  3E02               	addlw	2
  4334  0EA2  00BD               	movwf	??_main
  4335  0EA3  3000               	movlw	0
  4336  0EA4  1803               	skipnc
  4337  0EA5  3001               	movlw	1
  4338  0EA6  00BE               	movwf	??_main+1
  4339  0EA7  3050               	movlw	80
  4340  0EA8  00BF               	movwf	??_main+2
  4341  0EA9  3020               	movlw	32
  4342  0EAA  00C0               	movwf	??_main+3
  4343  0EAB  083D               	movf	??_main,w
  4344  0EAC  073F               	addwf	??_main+2,w
  4345  0EAD  00C1               	movwf	??_main+4
  4346  0EAE  083E               	movf	??_main+1,w
  4347  0EAF  3D40               	addwfc	??_main+3,w
  4348  0EB0  00C2               	movwf	??_main+5
  4349  0EB1  0841               	movf	??_main+4,w
  4350  0EB2  0086               	movwf	6
  4351  0EB3  0842               	movf	??_main+5,w
  4352  0EB4  0087               	movwf	7
  4353  0EB5  30FF               	movlw	255
  4354  0EB6  0081               	movwf	1
  4355  0EB7  3003               	movlw	3
  4356  0EB8  00BD               	movwf	??_main
  4357  0EB9  083D               	movf	??_main,w
  4358  0EBA  07CB               	addwf	main@x,f
  4359  0EBB  2E64               	goto	l1978
  4360  0EBC                     l1980:	
  4361                           
  4362                           ;main.c: 108: }
  4363                           ;main.c: 109: recived_byte = 0;
  4364  0EBC  0020               	movlb	0	; select bank0
  4365  0EBD  01C9               	clrf	main@recived_byte
  4366                           
  4367                           ;main.c: 110: }
  4368                           ;main.c: 113: unsigned char temp_red,temp_green, temp_blue, led_index;
  4369                           ;main.c: 115: switch(recived_byte)
  4370  0EBE  2F88               	goto	l2002
  4371  0EBF                     l1982:	
  4372                           ;main.c: 119: case 's':
  4373                           
  4374                           ;main.c: 118: continue;
  4375                           
  4376                           ;main.c: 116: {
  4377                           ;main.c: 117: case 0:
  4378                           
  4379                           
  4380                           ;main.c: 120: led_index = UART_Read();
  4381  0EBF  3181  216B  318E   	fcall	_UART_Read
  4382  0EC2  0020               	movlb	0	; select bank0
  4383  0EC3  00BD               	movwf	??_main
  4384  0EC4  083D               	movf	??_main,w
  4385  0EC5  00CA               	movwf	main@led_index
  4386                           
  4387                           ;main.c: 122: a[led_index+1] = UART_Read();
  4388  0EC6  3181  216B  318E   	fcall	_UART_Read
  4389  0EC9  0020               	movlb	0	; select bank0
  4390  0ECA  00BD               	movwf	??_main
  4391  0ECB  084A               	movf	main@led_index,w
  4392  0ECC  3E01               	addlw	1
  4393  0ECD  00BE               	movwf	??_main+1
  4394  0ECE  3000               	movlw	0
  4395  0ECF  1803               	skipnc
  4396  0ED0  3001               	movlw	1
  4397  0ED1  00BF               	movwf	??_main+2
  4398  0ED2  3050               	movlw	80
  4399  0ED3  00C0               	movwf	??_main+3
  4400  0ED4  3020               	movlw	32
  4401  0ED5  00C1               	movwf	??_main+4
  4402  0ED6  083E               	movf	??_main+1,w
  4403  0ED7  0740               	addwf	??_main+3,w
  4404  0ED8  00C2               	movwf	??_main+5
  4405  0ED9  083F               	movf	??_main+2,w
  4406  0EDA  3D41               	addwfc	??_main+4,w
  4407  0EDB  00C3               	movwf	??_main+6
  4408  0EDC  0842               	movf	??_main+5,w
  4409  0EDD  0086               	movwf	6
  4410  0EDE  0843               	movf	??_main+6,w
  4411  0EDF  0087               	movwf	7
  4412  0EE0  083D               	movf	??_main,w
  4413  0EE1  0081               	movwf	1
  4414                           
  4415                           ;main.c: 123: a[led_index] = UART_Read();
  4416  0EE2  3181  216B  318E   	fcall	_UART_Read
  4417  0EE5  0020               	movlb	0	; select bank0
  4418  0EE6  00BD               	movwf	??_main
  4419  0EE7  084A               	movf	main@led_index,w
  4420  0EE8  3E50               	addlw	80
  4421  0EE9  00BE               	movwf	??_main+1
  4422  0EEA  01BF               	clrf	??_main+2
  4423  0EEB  3020               	movlw	32
  4424  0EEC  3DBF               	addwfc	??_main+2,f
  4425  0EED  083E               	movf	??_main+1,w
  4426  0EEE  0086               	movwf	6
  4427  0EEF  083F               	movf	??_main+2,w
  4428  0EF0  0087               	movwf	7
  4429  0EF1  083D               	movf	??_main,w
  4430  0EF2  0081               	movwf	1
  4431                           
  4432                           ;main.c: 124: a[led_index+2] = UART_Read();
  4433  0EF3  3181  216B  318E   	fcall	_UART_Read
  4434  0EF6  0020               	movlb	0	; select bank0
  4435  0EF7  00BD               	movwf	??_main
  4436  0EF8  084A               	movf	main@led_index,w
  4437  0EF9  3E02               	addlw	2
  4438  0EFA  00BE               	movwf	??_main+1
  4439  0EFB  3000               	movlw	0
  4440  0EFC  1803               	skipnc
  4441  0EFD  3001               	movlw	1
  4442  0EFE  00BF               	movwf	??_main+2
  4443  0EFF  3050               	movlw	80
  4444  0F00  00C0               	movwf	??_main+3
  4445  0F01  3020               	movlw	32
  4446  0F02  00C1               	movwf	??_main+4
  4447  0F03  083E               	movf	??_main+1,w
  4448  0F04  0740               	addwf	??_main+3,w
  4449  0F05  00C2               	movwf	??_main+5
  4450  0F06  083F               	movf	??_main+2,w
  4451  0F07  3D41               	addwfc	??_main+4,w
  4452  0F08  00C3               	movwf	??_main+6
  4453  0F09  0842               	movf	??_main+5,w
  4454  0F0A  0086               	movwf	6
  4455  0F0B  0843               	movf	??_main+6,w
  4456  0F0C  0087               	movwf	7
  4457  0F0D  083D               	movf	??_main,w
  4458  0F0E  0081               	movwf	1
  4459                           
  4460                           ;main.c: 125: break;
  4461  0F0F  2F96               	goto	l2004
  4462  0F10                     l1990:	
  4463                           ;main.c: 126: case 'a':
  4464                           
  4465                           
  4466                           ;main.c: 128: temp_red = UART_Read();
  4467  0F10  3181  216B  318E   	fcall	_UART_Read
  4468  0F13  0020               	movlb	0	; select bank0
  4469  0F14  00BD               	movwf	??_main
  4470  0F15  083D               	movf	??_main,w
  4471  0F16  00C6               	movwf	main@temp_red
  4472                           
  4473                           ;main.c: 129: temp_green = UART_Read();
  4474  0F17  3181  216B  318E   	fcall	_UART_Read
  4475  0F1A  0020               	movlb	0	; select bank0
  4476  0F1B  00BD               	movwf	??_main
  4477  0F1C  083D               	movf	??_main,w
  4478  0F1D  00C7               	movwf	main@temp_green
  4479                           
  4480                           ;main.c: 130: temp_blue = UART_Read();
  4481  0F1E  3181  216B  318E   	fcall	_UART_Read
  4482  0F21  0020               	movlb	0	; select bank0
  4483  0F22  00BD               	movwf	??_main
  4484  0F23  083D               	movf	??_main,w
  4485  0F24  00C8               	movwf	main@temp_blue
  4486                           
  4487                           ;main.c: 132: for(unsigned char x=0; x< (led_number*3); x+=3)
  4488  0F25  01CC               	clrf	main@x_268
  4489  0F26                     l1998:	
  4490  0F26  0822               	movf	_led_number,w
  4491  0F27  00BD               	movwf	??_main
  4492  0F28  01BE               	clrf	??_main+1
  4493  0F29  083D               	movf	??_main,w
  4494  0F2A  00B5               	movwf	___wmul@multiplier
  4495  0F2B  083E               	movf	??_main+1,w
  4496  0F2C  00B6               	movwf	___wmul@multiplier+1
  4497  0F2D  3003               	movlw	3
  4498  0F2E  00B7               	movwf	___wmul@multiplicand
  4499  0F2F  3000               	movlw	0
  4500  0F30  00B8               	movwf	___wmul@multiplicand+1
  4501  0F31  3187  27CF  318E   	fcall	___wmul
  4502  0F34  0020               	movlb	0	; select bank0
  4503  0F35  0836               	movf	?___wmul+1,w
  4504  0F36  3A80               	xorlw	128
  4505  0F37  3C80               	sublw	128
  4506  0F38  1D03               	skipz
  4507  0F39  2F3C               	goto	u995
  4508  0F3A  0835               	movf	?___wmul,w
  4509  0F3B  024C               	subwf	main@x_268,w
  4510  0F3C                     u995:	
  4511  0F3C  1803               	btfsc	3,0
  4512  0F3D  2F96               	goto	l2004
  4513                           
  4514                           ;main.c: 133: {
  4515                           ;main.c: 134: a[x] = temp_green;
  4516  0F3E  0020               	movlb	0	; select bank0
  4517  0F3F  084C               	movf	main@x_268,w
  4518  0F40  3E50               	addlw	80
  4519  0F41  00BD               	movwf	??_main
  4520  0F42  01BE               	clrf	??_main+1
  4521  0F43  3020               	movlw	32
  4522  0F44  3DBE               	addwfc	??_main+1,f
  4523  0F45  083D               	movf	??_main,w
  4524  0F46  0086               	movwf	6
  4525  0F47  083E               	movf	??_main+1,w
  4526  0F48  0087               	movwf	7
  4527  0F49  0847               	movf	main@temp_green,w
  4528  0F4A  0081               	movwf	1
  4529                           
  4530                           ;main.c: 135: a[x+1] = temp_red;
  4531  0F4B  084C               	movf	main@x_268,w
  4532  0F4C  3E01               	addlw	1
  4533  0F4D  00BD               	movwf	??_main
  4534  0F4E  3000               	movlw	0
  4535  0F4F  1803               	skipnc
  4536  0F50  3001               	movlw	1
  4537  0F51  00BE               	movwf	??_main+1
  4538  0F52  3050               	movlw	80
  4539  0F53  00BF               	movwf	??_main+2
  4540  0F54  3020               	movlw	32
  4541  0F55  00C0               	movwf	??_main+3
  4542  0F56  083D               	movf	??_main,w
  4543  0F57  073F               	addwf	??_main+2,w
  4544  0F58  00C1               	movwf	??_main+4
  4545  0F59  083E               	movf	??_main+1,w
  4546  0F5A  3D40               	addwfc	??_main+3,w
  4547  0F5B  00C2               	movwf	??_main+5
  4548  0F5C  0841               	movf	??_main+4,w
  4549  0F5D  0086               	movwf	6
  4550  0F5E  0842               	movf	??_main+5,w
  4551  0F5F  0087               	movwf	7
  4552  0F60  0846               	movf	main@temp_red,w
  4553  0F61  0081               	movwf	1
  4554                           
  4555                           ;main.c: 136: a[x+2] = temp_blue;
  4556  0F62  084C               	movf	main@x_268,w
  4557  0F63  3E02               	addlw	2
  4558  0F64  00BD               	movwf	??_main
  4559  0F65  3000               	movlw	0
  4560  0F66  1803               	skipnc
  4561  0F67  3001               	movlw	1
  4562  0F68  00BE               	movwf	??_main+1
  4563  0F69  3050               	movlw	80
  4564  0F6A  00BF               	movwf	??_main+2
  4565  0F6B  3020               	movlw	32
  4566  0F6C  00C0               	movwf	??_main+3
  4567  0F6D  083D               	movf	??_main,w
  4568  0F6E  073F               	addwf	??_main+2,w
  4569  0F6F  00C1               	movwf	??_main+4
  4570  0F70  083E               	movf	??_main+1,w
  4571  0F71  3D40               	addwfc	??_main+3,w
  4572  0F72  00C2               	movwf	??_main+5
  4573  0F73  0841               	movf	??_main+4,w
  4574  0F74  0086               	movwf	6
  4575  0F75  0842               	movf	??_main+5,w
  4576  0F76  0087               	movwf	7
  4577  0F77  0848               	movf	main@temp_blue,w
  4578  0F78  0081               	movwf	1
  4579  0F79  3003               	movlw	3
  4580  0F7A  00BD               	movwf	??_main
  4581  0F7B  083D               	movf	??_main,w
  4582  0F7C  07CC               	addwf	main@x_268,f
  4583  0F7D  2F26               	goto	l1998
  4584  0F7E                     l2000:	
  4585                           ;main.c: 139: case 'e':
  4586                           
  4587                           ;main.c: 137: }
  4588                           ;main.c: 138: break;
  4589                           
  4590                           
  4591                           ;main.c: 141: enable = !enable;
  4592  0F7E  0020               	movlb	0	; select bank0
  4593  0F7F  0821               	movf	_enable,w
  4594  0F80  3A00               	xorlw	0
  4595  0F81  3000               	movlw	0
  4596  0F82  1903               	skipnz
  4597  0F83  3001               	movlw	1
  4598  0F84  00BD               	movwf	??_main
  4599  0F85  083D               	movf	??_main,w
  4600  0F86  00A1               	movwf	_enable
  4601                           
  4602                           ;main.c: 142: }
  4603  0F87  2F96               	goto	l2004
  4604  0F88                     l2002:	
  4605  0F88  0849               	movf	main@recived_byte,w
  4606                           
  4607                           ; Switch size 1, requested type "space"
  4608                           ; Number of cases is 4, Range of values is 0 to 115
  4609                           ; switch strategies available:
  4610                           ; Name         Instructions Cycles
  4611                           ; simple_byte           13     7 (average)
  4612                           ; direct_byte          238     6 (fixed)
  4613                           ; jumptable            260     6 (fixed)
  4614                           ;	Chosen strategy is simple_byte
  4615  0F89  3A00               	xorlw	0	; case 0
  4616  0F8A  1903               	skipnz
  4617  0F8B  2E4C               	goto	l1966
  4618  0F8C  3A61               	xorlw	97	; case 97
  4619  0F8D  1903               	skipnz
  4620  0F8E  2F10               	goto	l1990
  4621  0F8F  3A04               	xorlw	4	; case 101
  4622  0F90  1903               	skipnz
  4623  0F91  2F7E               	goto	l2000
  4624  0F92  3A16               	xorlw	22	; case 115
  4625  0F93  1903               	skipnz
  4626  0F94  2EBF               	goto	l1982
  4627  0F95  2F96               	goto	l2004
  4628  0F96                     l2004:	
  4629                           
  4630                           ;main.c: 145: if(!enable)
  4631  0F96  0020               	movlb	0	; select bank0
  4632  0F97  08A1               	movf	_enable,f
  4633  0F98  1903               	btfsc	3,2
  4634  0F99  2E4C               	goto	l1966
  4635                           
  4636                           ;main.c: 175: byte_count = (led_number*3);
  4637                           
  4638                           ;main.c: 146: continue;
  4639  0F9A  3003               	movlw	3
  4640  0F9B  00BD               	movwf	??_main
  4641  0F9C  083D               	movf	??_main,w
  4642  0F9D  00B5               	movwf	___bmul@multiplicand
  4643  0F9E  0822               	movf	_led_number,w
  4644  0F9F  3187  27ED  318E   	fcall	___bmul
  4645  0FA2  0020               	movlb	0	; select bank0
  4646  0FA3  00BE               	movwf	??_main+1
  4647  0FA4  083E               	movf	??_main+1,w
  4648  0FA5  00A0               	movwf	32
  4649  0FA6  0020               	banksel	15	; ;# 
  4650  0FA7  3020               	movlw	32	;# 
  4651  0FA8  0085               	movwf	5	; ;# 
  4652  0FA9  3050               	movlw	80	;# 
  4653  0FAA  0084               	movwf	4	; ;# 
  4654  0FAB  0012               	moviw fsr0++	; ;# 
  4655  0FAC  00B0               	movwf	_temp	;# 
  4656  0FAD  35B0               	lslf	_temp,f	; ;# 
  4657  0FAE                     byte_loop:	
  4658                           
  4659                           ;# 
  4660  0FAE  140F               	bsf	15,0	; ;# 
  4661  0FAF  1C03               	btfss	3,0	; ;# 
  4662  0FB0  100F               	bcf	15,0	; ;# 
  4663  0FB1  35B0               	lslf	_temp,f	; ;# 
  4664  0FB2  0000               	nop	;# 
  4665  0FB3  100F               	bcf	15,0	; ;# 
  4666  0FB4  0000               	nop	;# 
  4667  0FB5  0000               	nop	;# 
  4668  0FB6  0000               	nop	;# 
  4669  0FB7  0000               	nop	;# 
  4670  0FB8  140F               	bsf	15,0	; ;# 
  4671  0FB9  1C03               	btfss	3,0	; ;# 
  4672  0FBA  100F               	bcf	15,0	; ;# 
  4673  0FBB  35B0               	lslf	_temp,f	; ;# 
  4674  0FBC  0000               	nop	;# 
  4675  0FBD  100F               	bcf	15,0	; ;# 
  4676  0FBE  0000               	nop	;# 
  4677  0FBF  0000               	nop	;# 
  4678  0FC0  0000               	nop	;# 
  4679  0FC1  0000               	nop	;# 
  4680  0FC2  140F               	bsf	15,0	; ;# 
  4681  0FC3  1C03               	btfss	3,0	; ;# 
  4682  0FC4  100F               	bcf	15,0	; ;# 
  4683  0FC5  35B0               	lslf	_temp,f	; ;# 
  4684  0FC6  0000               	nop	;# 
  4685  0FC7  100F               	bcf	15,0	; ;# 
  4686  0FC8  0000               	nop	;# 
  4687  0FC9  0000               	nop	;# 
  4688  0FCA  0000               	nop	;# 
  4689  0FCB  0000               	nop	;# 
  4690  0FCC  140F               	bsf	15,0	; ;# 
  4691  0FCD  1C03               	btfss	3,0	; ;# 
  4692  0FCE  100F               	bcf	15,0	; ;# 
  4693  0FCF  35B0               	lslf	_temp,f	; ;# 
  4694  0FD0  0000               	nop	;# 
  4695  0FD1  100F               	bcf	15,0	; ;# 
  4696  0FD2  0000               	nop	;# 
  4697  0FD3  0000               	nop	;# 
  4698  0FD4  0000               	nop	;# 
  4699  0FD5  0000               	nop	;# 
  4700  0FD6  140F               	bsf	15,0	; ;# 
  4701  0FD7  1C03               	btfss	3,0	; ;# 
  4702  0FD8  100F               	bcf	15,0	; ;# 
  4703  0FD9  35B0               	lslf	_temp,f	; ;# 
  4704  0FDA  0000               	nop	;# 
  4705  0FDB  100F               	bcf	15,0	; ;# 
  4706  0FDC  0000               	nop	;# 
  4707  0FDD  0000               	nop	;# 
  4708  0FDE  0000               	nop	;# 
  4709  0FDF  0000               	nop	;# 
  4710  0FE0  140F               	bsf	15,0	; ;# 
  4711  0FE1  1C03               	btfss	3,0	; ;# 
  4712  0FE2  100F               	bcf	15,0	; ;# 
  4713  0FE3  35B0               	lslf	_temp,f	; ;# 
  4714  0FE4  0000               	nop	;# 
  4715  0FE5  100F               	bcf	15,0	; ;# 
  4716  0FE6  0000               	nop	;# 
  4717  0FE7  0000               	nop	;# 
  4718  0FE8  0000               	nop	;# 
  4719  0FE9  0000               	nop	;# 
  4720  0FEA  140F               	bsf	15,0	; ;# 
  4721  0FEB  1C03               	btfss	3,0	; ;# 
  4722  0FEC  100F               	bcf	15,0	; ;# 
  4723  0FED  35B0               	lslf	_temp,f	; ;# 
  4724  0FEE  0000               	nop	;# 
  4725  0FEF  100F               	bcf	15,0	; ;# 
  4726  0FF0  0000               	nop	;# 
  4727  0FF1  0000               	nop	;# 
  4728  0FF2  0012               	moviw fsr0++	; ;# 
  4729  0FF3  00B0               	movwf	_temp	; ;# 
  4730  0FF4  140F               	bsf	15,0	; ;# 
  4731  0FF5  1C03               	btfss	3,0	; ;# 
  4732  0FF6  100F               	bcf	15,0	; ;# 
  4733                           
  4734                           ; ;# 
  4735  0FF7  35B0               	lslf	_temp,f	; ;# 
  4736  0FF8  0000               	nop	;# 
  4737  0FF9  100F               	bcf	15,0	; ;# 
  4738  0FFA  0000               	nop	;# 
  4739  0FFB  0BA0               	decfsz	_byte_count,f	;# 
  4740  0FFC  2FAE               	goto	byte_loop	;# 
  4741                           
  4742                           ;main.c: 302: RD0 = 0;
  4743  0FFD  0020               	movlb	0	; select bank0
  4744  0FFE  100F               	bcf	15,0	;volatile
  4745  0FFF  2E4C               	goto	l1966
  4746  1000                     __end_of_main:	
  4747                           
  4748                           	psect	text1
  4749  010C                     __ptext1:	
  4750 ;; *************** function _printf *****************
  4751 ;; Defined at:
  4752 ;;		line 464 in file "C:\Program Files (x86)\Microchip\xc8\v1.31\sources\common\doprnt.c"
  4753 ;; Parameters:    Size  Location     Type
  4754 ;;  f               2    5[BANK0h] PTR const unsigned char 
  4755 ;;		 -> STR_1(56), 
  4756 ;; Auto vars:     Size  Location     Type
  4757 ;;  _val            4    0        struct .
  4758 ;;  c               1   11[BANK0h] char 
  4759 ;;  ap              1   10[BANK0h] PTR void [1]
  4760 ;;		 -> ?_printf(2), 
  4761 ;;  flag            1    0        unsigned char 
  4762 ;;  prec            1    0        char 
  4763 ;; Return value:  Size  Location     Type
  4764 ;;                  2    5[BANK0h] int 
  4765 ;; Registers used:
  4766 ;;		wreg, fsr0l, fsr0h, status,2, status,0, pclath, cstack
  4767 ;; Tracked objects:
  4768 ;;		On entry : 0/0
  4769 ;;		On exit  : 0/0
  4770 ;;		Unchanged: 0/0
  4771 ;; Data sizes:     COMMON  BANK0h  BANK0l   BANK1   BANK2   BANK3   BANK4   BANK5   BANK6   BANK7   BANK8   BANK9  BANK1
      +0  BANK11  BANK12
  4772 ;;      Params:         0       2       0       0       0       0       0       0       0       0       0       0       
      +0       0       0
  4773 ;;      Locals:         0       2       0       0       0       0       0       0       0       0       0       0       
      +0       0       0
  4774 ;;      Temps:          0       3       0       0       0       0       0       0       0       0       0       0       
      +0       0       0
  4775 ;;      Totals:         0       7       0       0       0       0       0       0       0       0       0       0       
      +0       0       0
  4776 ;;Total ram usage:        7 bytes
  4777 ;; Hardware stack levels used:    1
  4778 ;; Hardware stack levels required when called:    3
  4779 ;; This function calls:
  4780 ;;		_putch
  4781 ;; This function is called by:
  4782 ;;		_main
  4783 ;; This function uses a non-reentrant model
  4784 ;;
  4785                           
  4786                           
  4787                           ;psect for function _printf
  4788  010C                     _printf:	
  4789                           
  4790                           ;doprnt.c: 466: va_list ap;
  4791                           ;doprnt.c: 499: signed char c;
  4792                           ;doprnt.c: 506: signed char prec;
  4793                           ;doprnt.c: 508: unsigned char flag;
  4794                           ;doprnt.c: 527: union {
  4795                           ;doprnt.c: 528: unsigned int _val;
  4796                           ;doprnt.c: 529: struct {
  4797                           ;doprnt.c: 530: const char * _cp;
  4798                           ;doprnt.c: 531: unsigned _len;
  4799                           ;doprnt.c: 532: } _str;
  4800                           ;doprnt.c: 533: } _val;
  4801                           ;doprnt.c: 542: *ap = __va_start();
  4802                           
  4803                           ;incstack = 0
  4804                           ; Regs used in _printf: [wreg-fsr0h+status,2+status,0+pclath+cstack]
  4805  010C  3038               	movlw	(?_printf+2)& (0+255)
  4806  010D  0020               	movlb	0	; select bank0
  4807  010E  00B8               	movwf	??_printf
  4808  010F  0838               	movf	??_printf,w
  4809  0110  00BB               	movwf	printf@ap
  4810  0111                     l1724:	
  4811                           ;doprnt.c: 552: }
  4812                           ;doprnt.c: 1431: {
  4813                           
  4814                           ;doprnt.c: 551: continue;
  4815                           
  4816                           ;doprnt.c: 545: while(c = *f++) {
  4817                           
  4818  0111  0020               	movlb	0	; select bank0
  4819  0112  0837               	movf	printf@f+1,w
  4820  0113  00B9               	movwf	??_printf+1
  4821  0114  0836               	movf	printf@f,w
  4822  0115  00B8               	movwf	??_printf
  4823  0116  0AB6               	incf	printf@f,f
  4824  0117  1903               	skipnz
  4825  0118  0AB7               	incf	printf@f+1,f
  4826  0119  0838               	movf	??_printf,w
  4827  011A  0084               	movwf	4
  4828  011B  0839               	movf	??_printf+1,w
  4829  011C  0085               	movwf	5
  4830  011D  0800               	movf	0,w	;code access
  4831  011E  00BA               	movwf	??_printf+2
  4832  011F  083A               	movf	??_printf+2,w
  4833  0120  00BC               	movwf	printf@c
  4834  0121  08BC               	movf	printf@c,f
  4835  0122  1903               	btfsc	3,2
  4836  0123  0008               	return
  4837                           
  4838                           ;doprnt.c: 549: {
  4839                           ;doprnt.c: 550: (putch(c) );
  4840  0124  083C               	movf	printf@c,w
  4841  0125  3181  2159  3181   	fcall	_putch
  4842  0128  2911               	goto	l1724
  4843  0129                     __end_of_printf:	
  4844                           ;doprnt.c: 1478: }
  4845                           ;doprnt.c: 1542: }
  4846                           ;doprnt.c: 1549: return 0;
  4847                           ;	Return value of _printf is never used
  4848                           
  4849                           
  4850                           	psect	text2
  4851  0159                     __ptext2:	
  4852 ;; *************** function _putch *****************
  4853 ;; Defined at:
  4854 ;;		line 95 in file "uart.c"
  4855 ;; Parameters:    Size  Location     Type
  4856 ;;  c               1    wreg     unsigned char 
  4857 ;; Auto vars:     Size  Location     Type
  4858 ;;  c               1    4[BANK0h] unsigned char 
  4859 ;; Return value:  Size  Location     Type
  4860 ;;		None               void
  4861 ;; Registers used:
  4862 ;;		wreg
  4863 ;; Tracked objects:
  4864 ;;		On entry : 0/0
  4865 ;;		On exit  : 0/0
  4866 ;;		Unchanged: 0/0
  4867 ;; Data sizes:     COMMON  BANK0h  BANK0l   BANK1   BANK2   BANK3   BANK4   BANK5   BANK6   BANK7   BANK8   BANK9  BANK1
      +0  BANK11  BANK12
  4868 ;;      Params:         0       0       0       0       0       0       0       0       0       0       0       0       
      +0       0       0
  4869 ;;      Locals:         0       1       0       0       0       0       0       0       0       0       0       0       
      +0       0       0
  4870 ;;      Temps:          0       0       0       0       0       0       0       0       0       0       0       0       
      +0       0       0
  4871 ;;      Totals:         0       1       0       0       0       0       0       0       0       0       0       0       
      +0       0       0
  4872 ;;Total ram usage:        1 bytes
  4873 ;; Hardware stack levels used:    1
  4874 ;; Hardware stack levels required when called:    2
  4875 ;; This function calls:
  4876 ;;		Nothing
  4877 ;; This function is called by:
  4878 ;;		_printf
  4879 ;; This function uses a non-reentrant model
  4880 ;;
  4881                           
  4882                           
  4883                           ;psect for function _putch
  4884  0159                     _putch:	
  4885                           
  4886                           ;incstack = 0
  4887                           ; Regs used in _putch: [wreg]
  4888                           ;putch@c stored from wreg
  4889  0159  0020               	movlb	0	; select bank0
  4890  015A  00B5               	movwf	putch@c
  4891  015B                     l363:	
  4892                           ;uart.c: 97: while(!TRMT);
  4893                           
  4894  015B  0023               	movlb	3	; select bank3
  4895  015C  1C9E               	btfss	30,1	;volatile
  4896  015D  295B               	goto	l363
  4897                           
  4898                           ;uart.c: 98: TXREG = c;
  4899  015E  0020               	movlb	0	; select bank0
  4900  015F  0835               	movf	putch@c,w
  4901  0160  0023               	movlb	3	; select bank3
  4902  0161  009A               	movwf	26	;volatile
  4903  0162  0008               	return
  4904  0163                     __end_of_putch:	
  4905                           
  4906                           	psect	text3
  4907  07CF                     __ptext3:	
  4908 ;; *************** function ___wmul *****************
  4909 ;; Defined at:
  4910 ;;		line 3 in file "C:\Program Files (x86)\Microchip\xc8\v1.31\sources\common\wmul.c"
  4911 ;; Parameters:    Size  Location     Type
  4912 ;;  multiplier      2    4[BANK0h] unsigned int 
  4913 ;;  multiplicand    2    6[BANK0h] unsigned int 
  4914 ;; Auto vars:     Size  Location     Type
  4915 ;;  product         2    8[BANK0h] unsigned int 
  4916 ;; Return value:  Size  Location     Type
  4917 ;;                  2    4[BANK0h] unsigned int 
  4918 ;; Registers used:
  4919 ;;		wreg, status,2, status,0
  4920 ;; Tracked objects:
  4921 ;;		On entry : 0/0
  4922 ;;		On exit  : 0/0
  4923 ;;		Unchanged: 0/0
  4924 ;; Data sizes:     COMMON  BANK0h  BANK0l   BANK1   BANK2   BANK3   BANK4   BANK5   BANK6   BANK7   BANK8   BANK9  BANK1
      +0  BANK11  BANK12
  4925 ;;      Params:         0       4       0       0       0       0       0       0       0       0       0       0       
      +0       0       0
  4926 ;;      Locals:         0       2       0       0       0       0       0       0       0       0       0       0       
      +0       0       0
  4927 ;;      Temps:          0       0       0       0       0       0       0       0       0       0       0       0       
      +0       0       0
  4928 ;;      Totals:         0       6       0       0       0       0       0       0       0       0       0       0       
      +0       0       0
  4929 ;;Total ram usage:        6 bytes
  4930 ;; Hardware stack levels used:    1
  4931 ;; Hardware stack levels required when called:    2
  4932 ;; This function calls:
  4933 ;;		Nothing
  4934 ;; This function is called by:
  4935 ;;		_main
  4936 ;; This function uses a non-reentrant model
  4937 ;;
  4938                           
  4939                           
  4940                           ;psect for function ___wmul
  4941  07CF                     ___wmul:	
  4942                           
  4943                           ;incstack = 0
  4944                           ; Regs used in ___wmul: [wreg+status,2+status,0]
  4945  07CF  0020               	movlb	0	; select bank0
  4946  07D0  01B9               	clrf	___wmul@product
  4947  07D1  01BA               	clrf	___wmul@product+1
  4948  07D2                     l1770:	
  4949  07D2  1C35               	btfss	___wmul@multiplier,0
  4950  07D3  2FD8               	goto	l818
  4951  07D4  0837               	movf	___wmul@multiplicand,w
  4952  07D5  07B9               	addwf	___wmul@product,f
  4953  07D6  0838               	movf	___wmul@multiplicand+1,w
  4954  07D7  3DBA               	addwfc	___wmul@product+1,f
  4955  07D8                     l818:	
  4956  07D8  3001               	movlw	1
  4957  07D9                     u725:	
  4958  07D9  35B7               	lslf	___wmul@multiplicand,f
  4959  07DA  0DB8               	rlf	___wmul@multiplicand+1,f
  4960  07DB  0B89               	decfsz	9,f
  4961  07DC  2FD9               	goto	u725
  4962  07DD  3001               	movlw	1
  4963  07DE                     u735:	
  4964  07DE  36B6               	lsrf	___wmul@multiplier+1,f
  4965  07DF  0CB5               	rrf	___wmul@multiplier,f
  4966  07E0  0B89               	decfsz	9,f
  4967  07E1  2FDE               	goto	u735
  4968  07E2  0836               	movf	___wmul@multiplier+1,w
  4969  07E3  0435               	iorwf	___wmul@multiplier,w
  4970  07E4  1D03               	skipz
  4971  07E5  2FD2               	goto	l1770
  4972  07E6  083A               	movf	___wmul@product+1,w
  4973  07E7  01B6               	clrf	?___wmul+1
  4974  07E8  07B6               	addwf	?___wmul+1,f
  4975  07E9  0839               	movf	___wmul@product,w
  4976  07EA  01B5               	clrf	?___wmul
  4977  07EB  07B5               	addwf	?___wmul,f
  4978  07EC  0008               	return
  4979  07ED                     __end_of___wmul:	
  4980                           
  4981                           	psect	text4
  4982  07ED                     __ptext4:	
  4983 ;; *************** function ___bmul *****************
  4984 ;; Defined at:
  4985 ;;		line 4 in file "C:\Program Files (x86)\Microchip\xc8\v1.31\sources\common\bmul.c"
  4986 ;; Parameters:    Size  Location     Type
  4987 ;;  multiplier      1    wreg     unsigned char 
  4988 ;;  multiplicand    1    4[BANK0h] unsigned char 
  4989 ;; Auto vars:     Size  Location     Type
  4990 ;;  multiplier      1    7[BANK0h] unsigned char 
  4991 ;;  product         1    6[BANK0h] unsigned char 
  4992 ;; Return value:  Size  Location     Type
  4993 ;;                  1    wreg      unsigned char 
  4994 ;; Registers used:
  4995 ;;		wreg, status,2, status,0
  4996 ;; Tracked objects:
  4997 ;;		On entry : 0/0
  4998 ;;		On exit  : 0/0
  4999 ;;		Unchanged: 0/0
  5000 ;; Data sizes:     COMMON  BANK0h  BANK0l   BANK1   BANK2   BANK3   BANK4   BANK5   BANK6   BANK7   BANK8   BANK9  BANK1
      +0  BANK11  BANK12
  5001 ;;      Params:         0       1       0       0       0       0       0       0       0       0       0       0       
      +0       0       0
  5002 ;;      Locals:         0       2       0       0       0       0       0       0       0       0       0       0       
      +0       0       0
  5003 ;;      Temps:          0       1       0       0       0       0       0       0       0       0       0       0       
      +0       0       0
  5004 ;;      Totals:         0       4       0       0       0       0       0       0       0       0       0       0       
      +0       0       0
  5005 ;;Total ram usage:        4 bytes
  5006 ;; Hardware stack levels used:    1
  5007 ;; Hardware stack levels required when called:    2
  5008 ;; This function calls:
  5009 ;;		Nothing
  5010 ;; This function is called by:
  5011 ;;		_main
  5012 ;;		_mTouch_Init
  5013 ;;		_mTouch_ButtonStateMachine
  5014 ;;		_mTouch_UpdateBaseline
  5015 ;; This function uses a non-reentrant model
  5016 ;;
  5017                           
  5018                           
  5019                           ;psect for function ___bmul
  5020  07ED                     ___bmul:	
  5021                           
  5022                           ;incstack = 0
  5023                           ; Regs used in ___bmul: [wreg+status,2+status,0]
  5024                           ;___bmul@multiplier stored from wreg
  5025  07ED  0020               	movlb	0	; select bank0
  5026  07EE  00B8               	movwf	___bmul@multiplier
  5027  07EF  01B7               	clrf	___bmul@product
  5028  07F0                     l1754:	
  5029  07F0  1C38               	btfss	___bmul@multiplier,0
  5030  07F1  2FF6               	goto	l1758
  5031  07F2  0835               	movf	___bmul@multiplicand,w
  5032  07F3  00B6               	movwf	??___bmul
  5033  07F4  0836               	movf	??___bmul,w
  5034  07F5  07B7               	addwf	___bmul@product,f
  5035  07F6                     l1758:	
  5036  07F6  1003               	clrc
  5037  07F7  0DB5               	rlf	___bmul@multiplicand,f
  5038  07F8  1003               	clrc
  5039  07F9  0CB8               	rrf	___bmul@multiplier,f
  5040  07FA  08B8               	movf	___bmul@multiplier,f
  5041  07FB  1D03               	skipz
  5042  07FC  2FF0               	goto	l1754
  5043  07FD  0837               	movf	___bmul@product,w
  5044  07FE  0008               	return
  5045  07FF                     __end_of___bmul:	
  5046                           
  5047                           	psect	text5
  5048  07AF                     __ptext5:	
  5049 ;; *************** function _UART_Read_No_Block *****************
  5050 ;; Defined at:
  5051 ;;		line 35 in file "uart.c"
  5052 ;; Parameters:    Size  Location     Type
  5053 ;;		None
  5054 ;; Auto vars:     Size  Location     Type
  5055 ;;  i               2    6[BANK0h] int 
  5056 ;; Return value:  Size  Location     Type
  5057 ;;                  1    wreg      unsigned char 
  5058 ;; Registers used:
  5059 ;;		wreg, status,2, status,0, pclath, cstack
  5060 ;; Tracked objects:
  5061 ;;		On entry : 0/0
  5062 ;;		On exit  : 0/0
  5063 ;;		Unchanged: 0/0
  5064 ;; Data sizes:     COMMON  BANK0h  BANK0l   BANK1   BANK2   BANK3   BANK4   BANK5   BANK6   BANK7   BANK8   BANK9  BANK1
      +0  BANK11  BANK12
  5065 ;;      Params:         0       0       0       0       0       0       0       0       0       0       0       0       
      +0       0       0
  5066 ;;      Locals:         0       2       0       0       0       0       0       0       0       0       0       0       
      +0       0       0
  5067 ;;      Temps:          0       2       0       0       0       0       0       0       0       0       0       0       
      +0       0       0
  5068 ;;      Totals:         0       4       0       0       0       0       0       0       0       0       0       0       
      +0       0       0
  5069 ;;Total ram usage:        4 bytes
  5070 ;; Hardware stack levels used:    1
  5071 ;; Hardware stack levels required when called:    3
  5072 ;; This function calls:
  5073 ;;		_UART_Init
  5074 ;; This function is called by:
  5075 ;;		_main
  5076 ;; This function uses a non-reentrant model
  5077 ;;
  5078                           
  5079                           
  5080                           ;psect for function _UART_Read_No_Block
  5081  07AF                     _UART_Read_No_Block:	
  5082                           
  5083                           ;uart.c: 37: int i;
  5084                           ;uart.c: 39: if( OERR)
  5085                           
  5086                           ;incstack = 0
  5087                           ; Regs used in _UART_Read_No_Block: [wreg+status,2+status,0+pclath+cstack]
  5088  07AF  0023               	movlb	3	; select bank3
  5089  07B0  1C9D               	btfss	29,1	;volatile
  5090  07B1  2FC7               	goto	l331
  5091                           
  5092                           ;uart.c: 40: {
  5093                           ;uart.c: 41: i = RCREG;
  5094  07B2  0819               	movf	25,w	;volatile
  5095  07B3  0020               	movlb	0	; select bank0
  5096  07B4  00B5               	movwf	??_UART_Read_No_Block
  5097  07B5  01B6               	clrf	??_UART_Read_No_Block+1
  5098  07B6  0835               	movf	??_UART_Read_No_Block,w
  5099  07B7  00B7               	movwf	UART_Read_No_Block@i
  5100  07B8  0836               	movf	??_UART_Read_No_Block+1,w
  5101  07B9  00B8               	movwf	UART_Read_No_Block@i+1
  5102                           
  5103                           ;uart.c: 42: i = RCREG;
  5104  07BA  0023               	movlb	3	; select bank3
  5105  07BB  0819               	movf	25,w	;volatile
  5106  07BC  0020               	movlb	0	; select bank0
  5107  07BD  00B5               	movwf	??_UART_Read_No_Block
  5108  07BE  01B6               	clrf	??_UART_Read_No_Block+1
  5109  07BF  0835               	movf	??_UART_Read_No_Block,w
  5110  07C0  00B7               	movwf	UART_Read_No_Block@i
  5111  07C1  0836               	movf	??_UART_Read_No_Block+1,w
  5112  07C2  00B8               	movwf	UART_Read_No_Block@i+1
  5113                           
  5114                           ;uart.c: 43: UART_Init();
  5115  07C3  3181  2143         	fcall	_UART_Init
  5116                           
  5117                           ;uart.c: 45: return 0xff;
  5118  07C5  30FF               	movlw	255
  5119  07C6  0008               	return
  5120  07C7                     l331:	
  5121                           
  5122                           ;uart.c: 48: }
  5123                           ;uart.c: 51: if(RCIF)
  5124  07C7  0020               	movlb	0	; select bank0
  5125  07C8  1E91               	btfss	17,5	;volatile
  5126  07C9  2FCD               	goto	l1742
  5127                           
  5128                           ;uart.c: 52: return RCREG;
  5129  07CA  0023               	movlb	3	; select bank3
  5130  07CB  0819               	movf	25,w	;volatile
  5131  07CC  0008               	return
  5132  07CD                     l1742:	
  5133                           
  5134                           ;uart.c: 53: else
  5135                           ;uart.c: 54: return 0;
  5136  07CD  3000               	movlw	0
  5137  07CE  0008               	return
  5138  07CF                     __end_of_UART_Read_No_Block:	
  5139                           
  5140                           	psect	text6
  5141  016B                     __ptext6:	
  5142 ;; *************** function _UART_Read *****************
  5143 ;; Defined at:
  5144 ;;		line 29 in file "uart.c"
  5145 ;; Parameters:    Size  Location     Type
  5146 ;;		None
  5147 ;; Auto vars:     Size  Location     Type
  5148 ;;		None
  5149 ;; Return value:  Size  Location     Type
  5150 ;;                  1    wreg      unsigned char 
  5151 ;; Registers used:
  5152 ;;		wreg
  5153 ;; Tracked objects:
  5154 ;;		On entry : 0/0
  5155 ;;		On exit  : 0/0
  5156 ;;		Unchanged: 0/0
  5157 ;; Data sizes:     COMMON  BANK0h  BANK0l   BANK1   BANK2   BANK3   BANK4   BANK5   BANK6   BANK7   BANK8   BANK9  BANK1
      +0  BANK11  BANK12
  5158 ;;      Params:         0       0       0       0       0       0       0       0       0       0       0       0       
      +0       0       0
  5159 ;;      Locals:         0       0       0       0       0       0       0       0       0       0       0       0       
      +0       0       0
  5160 ;;      Temps:          0       0       0       0       0       0       0       0       0       0       0       0       
      +0       0       0
  5161 ;;      Totals:         0       0       0       0       0       0       0       0       0       0       0       0       
      +0       0       0
  5162 ;;Total ram usage:        0 bytes
  5163 ;; Hardware stack levels used:    1
  5164 ;; Hardware stack levels required when called:    2
  5165 ;; This function calls:
  5166 ;;		Nothing
  5167 ;; This function is called by:
  5168 ;;		_main
  5169 ;;		_UART_Read_Text
  5170 ;; This function uses a non-reentrant model
  5171 ;;
  5172                           
  5173                           
  5174                           ;psect for function _UART_Read
  5175  016B                     _UART_Read:	
  5176  016B                     l325:	
  5177                           ;uart.c: 32: while(!RCIF);
  5178                           
  5179                           ;incstack = 0
  5180                           ; Regs used in _UART_Read: [wreg]
  5181                           
  5182  016B  0020               	movlb	0	; select bank0
  5183  016C  1E91               	btfss	17,5	;volatile
  5184  016D  296B               	goto	l325
  5185                           
  5186                           ;uart.c: 33: return RCREG;
  5187  016E  0023               	movlb	3	; select bank3
  5188  016F  0819               	movf	25,w	;volatile
  5189  0170  0008               	return
  5190  0171                     __end_of_UART_Read:	
  5191                           
  5192                           	psect	text7
  5193  06C7                     __ptext7:	
  5194 ;; *************** function _InitApp *****************
  5195 ;; Defined at:
  5196 ;;		line 24 in file "user.c"
  5197 ;; Parameters:    Size  Location     Type
  5198 ;;		None
  5199 ;; Auto vars:     Size  Location     Type
  5200 ;;		None
  5201 ;; Return value:  Size  Location     Type
  5202 ;;		None               void
  5203 ;; Registers used:
  5204 ;;		wreg, status,2, status,0, pclath, cstack
  5205 ;; Tracked objects:
  5206 ;;		On entry : 0/0
  5207 ;;		On exit  : 0/0
  5208 ;;		Unchanged: 0/0
  5209 ;; Data sizes:     COMMON  BANK0h  BANK0l   BANK1   BANK2   BANK3   BANK4   BANK5   BANK6   BANK7   BANK8   BANK9  BANK1
      +0  BANK11  BANK12
  5210 ;;      Params:         0       0       0       0       0       0       0       0       0       0       0       0       
      +0       0       0
  5211 ;;      Locals:         0       0       0       0       0       0       0       0       0       0       0       0       
      +0       0       0
  5212 ;;      Temps:          0       0       0       0       0       0       0       0       0       0       0       0       
      +0       0       0
  5213 ;;      Totals:         0       0       0       0       0       0       0       0       0       0       0       0       
      +0       0       0
  5214 ;;Total ram usage:        0 bytes
  5215 ;; Hardware stack levels used:    1
  5216 ;; Hardware stack levels required when called:    3
  5217 ;; This function calls:
  5218 ;;		_UART_Init
  5219 ;; This function is called by:
  5220 ;;		_main
  5221 ;; This function uses a non-reentrant model
  5222 ;;
  5223                           
  5224                           
  5225                           ;psect for function _InitApp
  5226  06C7                     _InitApp:	
  5227                           
  5228                           ;user.c: 33: ANSELA= 0b00001000;
  5229                           
  5230                           ;incstack = 0
  5231                           ; Regs used in _InitApp: [wreg+status,2+status,0+pclath+cstack]
  5232  06C7  3008               	movlw	8
  5233  06C8  0023               	movlb	3	; select bank3
  5234  06C9  008C               	movwf	12	;volatile
  5235                           
  5236                           ;user.c: 34: TRISA = 0b00001000;
  5237  06CA  3008               	movlw	8
  5238  06CB  0021               	movlb	1	; select bank1
  5239  06CC  008C               	movwf	12	;volatile
  5240                           
  5241                           ;user.c: 36: PORTA = 0;
  5242  06CD  0020               	movlb	0	; select bank0
  5243  06CE  018C               	clrf	12	;volatile
  5244                           
  5245                           ;user.c: 38: ANSELD =0;
  5246  06CF  0023               	movlb	3	; select bank3
  5247  06D0  018F               	clrf	15	;volatile
  5248                           
  5249                           ;user.c: 39: TRISD = 0b00000000;
  5250  06D1  0021               	movlb	1	; select bank1
  5251  06D2  018F               	clrf	15	;volatile
  5252                           
  5253                           ;user.c: 42: PORTD =0b00000000;
  5254  06D3  0020               	movlb	0	; select bank0
  5255  06D4  018F               	clrf	15	;volatile
  5256                           
  5257                           ;user.c: 44: TRISE = 0b00000101;
  5258  06D5  3005               	movlw	5
  5259  06D6  0021               	movlb	1	; select bank1
  5260  06D7  0090               	movwf	16	;volatile
  5261                           
  5262                           ;user.c: 45: PORTE =0;
  5263  06D8  0020               	movlb	0	; select bank0
  5264  06D9  0190               	clrf	16	;volatile
  5265                           
  5266                           ;user.c: 47: ANSELB = 0b00111111;
  5267  06DA  303F               	movlw	63
  5268  06DB  0023               	movlb	3	; select bank3
  5269  06DC  008D               	movwf	13	;volatile
  5270                           
  5271                           ;user.c: 48: TRISB = 0b11111111;
  5272  06DD  30FF               	movlw	255
  5273  06DE  0021               	movlb	1	; select bank1
  5274  06DF  008D               	movwf	13	;volatile
  5275                           
  5276                           ;user.c: 49: PORTB = 0;
  5277  06E0  0020               	movlb	0	; select bank0
  5278  06E1  018D               	clrf	13	;volatile
  5279                           
  5280                           ;user.c: 51: TRISC = 0b10111111;
  5281  06E2  30BF               	movlw	191
  5282  06E3  0021               	movlb	1	; select bank1
  5283  06E4  008E               	movwf	14	;volatile
  5284                           
  5285                           ;user.c: 52: PORTC = 0;
  5286  06E5  0020               	movlb	0	; select bank0
  5287  06E6  018E               	clrf	14	;volatile
  5288                           
  5289                           ;user.c: 57: T0CS = 0;
  5290  06E7  0021               	movlb	1	; select bank1
  5291  06E8  1295               	bcf	21,5	;volatile
  5292                           
  5293                           ;user.c: 58: T0SE = 0;
  5294  06E9  1215               	bcf	21,4	;volatile
  5295                           
  5296                           ;user.c: 59: PSA = 0;
  5297  06EA  1195               	bcf	21,3	;volatile
  5298                           
  5299                           ;user.c: 60: PS2 = 0;
  5300  06EB  1115               	bcf	21,2	;volatile
  5301                           
  5302                           ;user.c: 61: PS1 = 0;
  5303  06EC  1095               	bcf	21,1	;volatile
  5304                           
  5305                           ;user.c: 62: PS0 = 0;
  5306  06ED  1015               	bcf	21,0	;volatile
  5307                           
  5308                           ;user.c: 63: TMR0 = 0;
  5309  06EE  0020               	movlb	0	; select bank0
  5310  06EF  0195               	clrf	21	;volatile
  5311                           
  5312                           ;user.c: 70: T1CON = 0b00110101;
  5313  06F0  3035               	movlw	53
  5314  06F1  0098               	movwf	24	;volatile
  5315                           
  5316                           ;user.c: 71: TMR1 = 0;
  5317  06F2  0196               	clrf	22	;volatile
  5318  06F3  0197               	clrf	23	;volatile
  5319                           
  5320                           ;user.c: 72: TMR1IE =0;
  5321  06F4  0021               	movlb	1	; select bank1
  5322  06F5  1011               	bcf	17,0	;volatile
  5323                           
  5324                           ;user.c: 77: UART_Init();
  5325  06F6  3181  2143         	fcall	_UART_Init
  5326  06F8  0008               	return
  5327  06F9                     __end_of_InitApp:	
  5328                           
  5329                           	psect	text8
  5330  0143                     __ptext8:	
  5331 ;; *************** function _UART_Init *****************
  5332 ;; Defined at:
  5333 ;;		line 5 in file "uart.c"
  5334 ;; Parameters:    Size  Location     Type
  5335 ;;		None
  5336 ;; Auto vars:     Size  Location     Type
  5337 ;;		None
  5338 ;; Return value:  Size  Location     Type
  5339 ;;		None               void
  5340 ;; Registers used:
  5341 ;;		wreg
  5342 ;; Tracked objects:
  5343 ;;		On entry : 0/0
  5344 ;;		On exit  : 0/0
  5345 ;;		Unchanged: 0/0
  5346 ;; Data sizes:     COMMON  BANK0h  BANK0l   BANK1   BANK2   BANK3   BANK4   BANK5   BANK6   BANK7   BANK8   BANK9  BANK1
      +0  BANK11  BANK12
  5347 ;;      Params:         0       0       0       0       0       0       0       0       0       0       0       0       
      +0       0       0
  5348 ;;      Locals:         0       0       0       0       0       0       0       0       0       0       0       0       
      +0       0       0
  5349 ;;      Temps:          0       0       0       0       0       0       0       0       0       0       0       0       
      +0       0       0
  5350 ;;      Totals:         0       0       0       0       0       0       0       0       0       0       0       0       
      +0       0       0
  5351 ;;Total ram usage:        0 bytes
  5352 ;; Hardware stack levels used:    1
  5353 ;; Hardware stack levels required when called:    2
  5354 ;; This function calls:
  5355 ;;		Nothing
  5356 ;; This function is called by:
  5357 ;;		_InitApp
  5358 ;;		_UART_Read_No_Block
  5359 ;;		_UART_Read_Text
  5360 ;; This function uses a non-reentrant model
  5361 ;;
  5362                           
  5363                           
  5364                           ;psect for function _UART_Init
  5365  0143                     _UART_Init:	
  5366                           
  5367                           ;uart.c: 7: CREN =0;
  5368                           
  5369                           ;incstack = 0
  5370                           ; Regs used in _UART_Init: [wreg]
  5371  0143  0023               	movlb	3	; select bank3
  5372  0144  121D               	bcf	29,4	;volatile
  5373                           
  5374                           ;uart.c: 10: SPBRG = 51;
  5375  0145  3033               	movlw	51
  5376  0146  009B               	movwf	27	;volatile
  5377                           
  5378                           ;uart.c: 11: BRGH = 0;
  5379  0147  111E               	bcf	30,2	;volatile
  5380                           
  5381                           ;uart.c: 12: BRG16 = 0;
  5382  0148  119F               	bcf	31,3	;volatile
  5383                           
  5384                           ;uart.c: 13: SYNC = 0;
  5385  0149  121E               	bcf	30,4	;volatile
  5386                           
  5387                           ;uart.c: 14: SPEN = 1;
  5388  014A  179D               	bsf	29,7	;volatile
  5389                           
  5390                           ;uart.c: 15: CREN = 1;
  5391  014B  161D               	bsf	29,4	;volatile
  5392                           
  5393                           ;uart.c: 16: TXEN = 1;
  5394  014C  169E               	bsf	30,5	;volatile
  5395  014D  0008               	return
  5396  014E                     __end_of_UART_Init:	
  5397                           
  5398                           	psect	text9
  5399  0171                     __ptext9:	
  5400 ;; *************** function _ConfigureOscillator *****************
  5401 ;; Defined at:
  5402 ;;		line 18 in file "system.c"
  5403 ;; Parameters:    Size  Location     Type
  5404 ;;		None
  5405 ;; Auto vars:     Size  Location     Type
  5406 ;;		None
  5407 ;; Return value:  Size  Location     Type
  5408 ;;		None               void
  5409 ;; Registers used:
  5410 ;;		wreg
  5411 ;; Tracked objects:
  5412 ;;		On entry : 0/0
  5413 ;;		On exit  : 0/0
  5414 ;;		Unchanged: 0/0
  5415 ;; Data sizes:     COMMON  BANK0h  BANK0l   BANK1   BANK2   BANK3   BANK4   BANK5   BANK6   BANK7   BANK8   BANK9  BANK1
      +0  BANK11  BANK12
  5416 ;;      Params:         0       0       0       0       0       0       0       0       0       0       0       0       
      +0       0       0
  5417 ;;      Locals:         0       0       0       0       0       0       0       0       0       0       0       0       
      +0       0       0
  5418 ;;      Temps:          0       0       0       0       0       0       0       0       0       0       0       0       
      +0       0       0
  5419 ;;      Totals:         0       0       0       0       0       0       0       0       0       0       0       0       
      +0       0       0
  5420 ;;Total ram usage:        0 bytes
  5421 ;; Hardware stack levels used:    1
  5422 ;; Hardware stack levels required when called:    2
  5423 ;; This function calls:
  5424 ;;		Nothing
  5425 ;; This function is called by:
  5426 ;;		_main
  5427 ;; This function uses a non-reentrant model
  5428 ;;
  5429                           
  5430                           
  5431                           ;psect for function _ConfigureOscillator
  5432  0171                     _ConfigureOscillator:	
  5433                           
  5434                           ;system.c: 25: OSCCON = 0b11110000;
  5435                           
  5436                           ;incstack = 0
  5437                           ; Regs used in _ConfigureOscillator: [wreg]
  5438  0171  30F0               	movlw	240
  5439  0172  0021               	movlb	1	; select bank1
  5440  0173  0099               	movwf	25	;volatile
  5441  0174  0008               	return
  5442  0175                     __end_of_ConfigureOscillator:	
  5443                           
  5444                           	psect	intentry
  5445  0004                     __pintentry:	
  5446 ;; *************** function _mTouch_Scan *****************
  5447 ;; Defined at:
  5448 ;;		line 182 in file "mTouch/mTouch_acquisition.c"
  5449 ;; Parameters:    Size  Location     Type
  5450 ;;		None
  5451 ;; Auto vars:     Size  Location     Type
  5452 ;;		None
  5453 ;; Return value:  Size  Location     Type
  5454 ;;		None               void
  5455 ;; Registers used:
  5456 ;;		wreg, fsr0l, fsr0h, fsr1l, fsr1h, status,2, status,0, btemp+1, pclath, cstack
  5457 ;; Tracked objects:
  5458 ;;		On entry : 0/0
  5459 ;;		On exit  : 0/0
  5460 ;;		Unchanged: 0/0
  5461 ;; Data sizes:     COMMON  BANK0h  BANK0l   BANK1   BANK2   BANK3   BANK4   BANK5   BANK6   BANK7   BANK8   BANK9  BANK1
      +0  BANK11  BANK12
  5462 ;;      Params:         0       0       0       0       0       0       0       0       0       0       0       0       
      +0       0       0
  5463 ;;      Locals:         0       0       0       0       0       0       0       0       0       0       0       0       
      +0       0       0
  5464 ;;      Temps:          0       4       0       0       0       0       0       0       0       0       0       0       
      +0       0       0
  5465 ;;      Totals:         0       4       0       0       0       0       0       0       0       0       0       0       
      +0       0       0
  5466 ;;Total ram usage:        4 bytes
  5467 ;; Hardware stack levels used:    1
  5468 ;; Hardware stack levels required when called:    1
  5469 ;; This function calls:
  5470 ;;		_mTouch_ChangeMode
  5471 ;;		_mTouch_DecimationFilter
  5472 ;;		_mTouch_ScanA_0
  5473 ;;		_mTouch_ScanA_1
  5474 ;;		_mTouch_ScanB_0
  5475 ;;		_mTouch_ScanB_1
  5476 ;;		_mTouch_StoreScanA
  5477 ;;		_mTouch_StoreScanB
  5478 ;;		_mTouch_WaitForGoDone
  5479 ;; This function is called by:
  5480 ;;		Interrupt level 1
  5481 ;; This function uses a non-reentrant model
  5482 ;;
  5483                           
  5484  0004                     _mTouch_Scan:	
  5485                           
  5486                           ;incstack = 0
  5487                           ; Regs used in _mTouch_Scan: [wreg-fsr1h+status,2+status,0+btemp+1+pclath+cstack]
  5488  0004  3180               	pagesel	$
  5489  0005  0020               	movlb	0	; select bank0
  5490  0006  087F               	movf	127,w
  5491  0007  00B4               	movwf	??_mTouch_Scan+3
  5492  0008                     mTouch_Scan:	
  5493                           
  5494                           ;# 
  5495                           ;mTouch_acquisition.c: 197: if (TMR0IF == 0)
  5496  0008  1D0B               	btfss	11,2	;volatile
  5497  0009  2895               	goto	i1l116
  5498                           
  5499                           ;mTouch_acquisition.c: 200: }
  5500                           ;mTouch_acquisition.c: 202: TMR0IF = 0;
  5501                           
  5502                           ;mTouch_acquisition.c: 198: {
  5503                           ;mTouch_acquisition.c: 199: return;
  5504  000A  110B               	bcf	11,2	;volatile
  5505  000B                     i1l1916:	
  5506                           ;mTouch_acquisition.c: 211: do
  5507                           
  5508                           
  5509                           ;mTouch_acquisition.c: 212: {
  5510                           ;mTouch_acquisition.c: 220: mTouch_currentAcqData = &mTouch_acqData[mTouch_currentScan];
  5511  000B  087D               	movf	_mTouch_currentScan,w
  5512  000C  0020               	movlb	0	; select bank0
  5513  000D  00B1               	movwf	??_mTouch_Scan
  5514  000E  3001               	movlw	1
  5515  000F                     u91_25:	
  5516  000F  35B1               	lslf	??_mTouch_Scan,f
  5517  0010  3EFF               	addlw	-1
  5518  0011  1D03               	skipz
  5519  0012  280F               	goto	u91_25
  5520  0013  3531               	lslf	??_mTouch_Scan,w
  5521  0014  3E56               	addlw	_mTouch_acqData& (0+255)
  5522  0015  00B2               	movwf	??_mTouch_Scan+1
  5523  0016  0832               	movf	??_mTouch_Scan+1,w
  5524  0017  00FC               	movwf	_mTouch_currentAcqData
  5525                           
  5526                           ;mTouch_acquisition.c: 232: mTouch_ScanA[mTouch_currentScan]();
  5527  0018  087D               	movf	_mTouch_currentScan,w
  5528  0019  3E09               	addlw	low (_mTouch_ScanA| (0+32768))
  5529  001A  0084               	movwf	4
  5530  001B  3086               	movlw	high (_mTouch_ScanA| (0+32768))
  5531  001C  1803               	skipnc
  5532  001D  3E01               	addlw	1
  5533  001E  0085               	movwf	5
  5534  001F  0800               	movf	0,w	;code access
  5535  0020  3181  2101  3180   	fcall	i1fptable
  5536                           
  5537                           ;mTouch_acquisition.c: 238: mTouch_WaitForGoDone();
  5538  0023  3181  2129  3180   	fcall	_mTouch_WaitForGoDone
  5539                           
  5540                           ;mTouch_acquisition.c: 239: mTouch_StoreScanA();
  5541  0026  3181  214E  3180   	fcall	_mTouch_StoreScanA
  5542                           
  5543                           ;mTouch_acquisition.c: 245: mTouch_ScanB[mTouch_currentScan]();
  5544  0029  087D               	movf	_mTouch_currentScan,w
  5545  002A  3E0B               	addlw	low (_mTouch_ScanB| (0+32768))
  5546  002B  0084               	movwf	4
  5547  002C  3086               	movlw	high (_mTouch_ScanB| (0+32768))
  5548  002D  1803               	skipnc
  5549  002E  3E01               	addlw	1
  5550  002F  0085               	movwf	5
  5551  0030  0800               	movf	0,w	;code access
  5552  0031  3181  2101  3180   	fcall	i1fptable
  5553                           
  5554                           ;mTouch_acquisition.c: 251: mTouch_WaitForGoDone();
  5555  0034  3181  2129  3180   	fcall	_mTouch_WaitForGoDone
  5556                           
  5557                           ;mTouch_acquisition.c: 252: mTouch_StoreScanB();
  5558  0037  3186  26F9  3180   	fcall	_mTouch_StoreScanB
  5559                           
  5560                           ;mTouch_acquisition.c: 261: mTouch_DecimationFilter();
  5561  003A  3186  2645  3180   	fcall	_mTouch_DecimationFilter
  5562                           
  5563                           ;mTouch_acquisition.c: 278: mTouch_currentScan++;
  5564  003D  3001               	movlw	1
  5565  003E  0020               	movlb	0	; select bank0
  5566  003F  00B1               	movwf	??_mTouch_Scan
  5567  0040  0831               	movf	??_mTouch_Scan,w
  5568  0041  07FD               	addwf	_mTouch_currentScan,f
  5569                           
  5570                           ;mTouch_acquisition.c: 280: } while (mTouch_currentScan != 2);
  5571  0042  087D               	movf	_mTouch_currentScan,w
  5572  0043  3A02               	xorlw	2
  5573  0044  1D03               	skipz
  5574  0045  280B               	goto	i1l1916
  5575                           
  5576                           ;mTouch_acquisition.c: 289: mTouch_currentScan = 0;
  5577  0046  01FD               	clrf	_mTouch_currentScan
  5578                           
  5579                           ;mTouch_acquisition.c: 311: if (--mTouch_stateVars.sampleCounter == 0)
  5580  0047  3001               	movlw	1
  5581  0048  02DE               	subwf	_mTouch_stateVars,f
  5582  0049  1D03               	btfss	3,2
  5583  004A  288A               	goto	i1l122
  5584                           
  5585                           ;mTouch_acquisition.c: 312: {
  5586                           ;mTouch_acquisition.c: 313: mTouch_stateVars.sampleCounter = 30;
  5587  004B  301E               	movlw	30
  5588  004C  00B1               	movwf	??_mTouch_Scan
  5589  004D  0831               	movf	??_mTouch_Scan,w
  5590  004E  00DE               	movwf	_mTouch_stateVars
  5591  004F                     i1l1942:	
  5592                           ;mTouch_acquisition.c: 317: do
  5593                           
  5594                           
  5595                           ;mTouch_acquisition.c: 318: {
  5596                           ;mTouch_acquisition.c: 319: mTouch_currentAcqData = &mTouch_acqData[mTouch_currentScan];
  5597  004F  087D               	movf	_mTouch_currentScan,w
  5598  0050  00B1               	movwf	??_mTouch_Scan
  5599  0051  3001               	movlw	1
  5600  0052                     u94_25:	
  5601  0052  35B1               	lslf	??_mTouch_Scan,f
  5602  0053  3EFF               	addlw	-1
  5603  0054  1D03               	skipz
  5604  0055  2852               	goto	u94_25
  5605  0056  3531               	lslf	??_mTouch_Scan,w
  5606  0057  3E56               	addlw	_mTouch_acqData& (0+255)
  5607  0058  00B2               	movwf	??_mTouch_Scan+1
  5608  0059  0832               	movf	??_mTouch_Scan+1,w
  5609  005A  00FC               	movwf	_mTouch_currentAcqData
  5610                           
  5611                           ;mTouch_acquisition.c: 320: mTouch_sensorData[mTouch_currentScan] = (uint16_t)(((uint24_
      +                          t)((*mTouch_currentAcqData).accumulator.v) & 0xFFFFF) >> 1);
  5612  005B  087C               	movf	_mTouch_currentAcqData,w
  5613  005C  0086               	movwf	6
  5614  005D  0187               	clrf	7
  5615  005E  3F40               	moviw [0]fsr1
  5616  005F  00B1               	movwf	??_mTouch_Scan
  5617  0060  3F41               	moviw [1]fsr1
  5618  0061  00B2               	movwf	??_mTouch_Scan+1
  5619  0062  3F42               	moviw [2]fsr1
  5620  0063  00B3               	movwf	??_mTouch_Scan+2
  5621  0064  3001               	movlw	1
  5622  0065                     u95_25:	
  5623  0065  36B3               	lsrf	??_mTouch_Scan+2,f
  5624  0066  0CB2               	rrf	??_mTouch_Scan+1,f
  5625  0067  0CB1               	rrf	??_mTouch_Scan,f
  5626  0068  0B89               	decfsz	9,f
  5627  0069  2865               	goto	u95_25
  5628  006A  357D               	lslf	_mTouch_currentScan,w
  5629  006B  3E51               	addlw	_mTouch_sensorData& (0+255)
  5630  006C  0086               	movwf	6
  5631  006D  0187               	clrf	7
  5632  006E  0831               	movf	??_mTouch_Scan,w
  5633  006F  3FC0               	movwi [0]fsr1
  5634  0070  0832               	movf	??_mTouch_Scan+1,w
  5635  0071  3FC1               	movwi [1]fsr1
  5636                           
  5637                           ;mTouch_acquisition.c: 321: (*mTouch_currentAcqData).accumulator.v &= 0xF00000;
  5638  0072  087C               	movf	_mTouch_currentAcqData,w
  5639  0073  0086               	movwf	6
  5640  0074  0187               	clrf	7
  5641  0075  3000               	movlw	0
  5642  0076  0581               	andwf	1,f
  5643  0077  3141               	addfsr 1,1
  5644  0078  3000               	movlw	0
  5645  0079  0581               	andwf	1,f
  5646  007A  3141               	addfsr 1,1
  5647  007B  30F0               	movlw	240
  5648  007C  0581               	andwf	1,f
  5649  007D  317E               	addfsr 1,-2
  5650                           
  5651                           ;mTouch_acquisition.c: 323: mTouch_currentScan++;
  5652  007E  3001               	movlw	1
  5653  007F  00B1               	movwf	??_mTouch_Scan
  5654  0080  0831               	movf	??_mTouch_Scan,w
  5655  0081  07FD               	addwf	_mTouch_currentScan,f
  5656                           
  5657                           ;mTouch_acquisition.c: 324: } while (mTouch_currentScan != 2);
  5658  0082  087D               	movf	_mTouch_currentScan,w
  5659  0083  3A02               	xorlw	2
  5660  0084  1D03               	skipz
  5661  0085  284F               	goto	i1l1942
  5662                           
  5663                           ;mTouch_acquisition.c: 333: mTouch_ChangeMode();
  5664  0086  3181  2163         	fcall	_mTouch_ChangeMode
  5665                           
  5666                           ;mTouch_acquisition.c: 335: mTouch_state.dataReady = 1;
  5667  0088  0020               	movlb	0	; select bank0
  5668  0089  1455               	bsf	_mTouch_state,0
  5669  008A                     i1l122:	
  5670                           ;mTouch_acquisition.c: 336: }
  5671                           ;mTouch_acquisition.c: 353: do { asm("BANKSEL    _mTouch_jitter" ); asm("bcf    " "STATU
      +                          S" ",0" ); asm("rrf    " "_mTouch_jitter" ",W" ); asm("btfsc  " "STATUS" ",0" ); asm("xo
      +                          rlw      0xB4" ); asm("movwf  " "_mTouch_jitter" ); asm("andlw  " "0x3F" ); asm("BANKSEL
      +                           " "TMR0" ); a
  5672                           
  5673  008A  0020               	banksel	_mTouch_jitter	;# 
  5674  008B  1003               	bcf	3,0	;# 
  5675  008C  0C6F               	rrf	_mTouch_jitter,w	;# 
  5676  008D  1803               	btfsc	3,0	;# 
  5677  008E  3AB4               	xorlw	180	;# 
  5678  008F  00EF               	movwf	_mTouch_jitter	;# 
  5679  0090  393F               	andlw	63	;# 
  5680  0091  0020               	banksel	21	;# 
  5681  0092  0195               	clrf	21	;# 
  5682  0093  0795               	addwf	21,f	;# 
  5683                           
  5684                           ;mTouch_acquisition.c: 362: TMR0IF = 0;
  5685  0094  110B               	bcf	11,2	;volatile
  5686  0095                     i1l116:	
  5687                           ;mTouch_acquisition.c: 366: return;
  5688                           
  5689  0095  0020               	movlb	0	; select bank0
  5690  0096  0834               	movf	??_mTouch_Scan+3,w
  5691  0097  00FF               	movwf	127
  5692  0098  0009               	retfie
  5693  0099                     __end_of_mTouch_Scan:	
  5694                           
  5695                           	psect	text11
  5696  0129                     __ptext11:	
  5697 ;; *************** function _mTouch_WaitForGoDone *****************
  5698 ;; Defined at:
  5699 ;;		line 433 in file "mTouch/mTouch_acquisition.c"
  5700 ;; Parameters:    Size  Location     Type
  5701 ;;		None
  5702 ;; Auto vars:     Size  Location     Type
  5703 ;;		None
  5704 ;; Return value:  Size  Location     Type
  5705 ;;		None               void
  5706 ;; Registers used:
  5707 ;;		wreg, status,2, status,0
  5708 ;; Tracked objects:
  5709 ;;		On entry : 0/0
  5710 ;;		On exit  : 0/0
  5711 ;;		Unchanged: 0/0
  5712 ;; Data sizes:     COMMON  BANK0h  BANK0l   BANK1   BANK2   BANK3   BANK4   BANK5   BANK6   BANK7   BANK8   BANK9  BANK1
      +0  BANK11  BANK12
  5713 ;;      Params:         0       0       0       0       0       0       0       0       0       0       0       0       
      +0       0       0
  5714 ;;      Locals:         0       0       0       0       0       0       0       0       0       0       0       0       
      +0       0       0
  5715 ;;      Temps:          1       0       0       0       0       0       0       0       0       0       0       0       
      +0       0       0
  5716 ;;      Totals:         1       0       0       0       0       0       0       0       0       0       0       0       
      +0       0       0
  5717 ;;Total ram usage:        1 bytes
  5718 ;; Hardware stack levels used:    1
  5719 ;; This function calls:
  5720 ;;		Nothing
  5721 ;; This function is called by:
  5722 ;;		_mTouch_Scan
  5723 ;; This function uses a non-reentrant model
  5724 ;;
  5725                           
  5726                           
  5727                           ;psect for function _mTouch_WaitForGoDone
  5728  0129                     _mTouch_WaitForGoDone:	
  5729                           
  5730                           ;mTouch_acquisition.c: 435: mTouch_delayCount = 0xFF;
  5731                           
  5732                           ;incstack = 0
  5733                           ; Regs used in _mTouch_WaitForGoDone: [wreg+status,2+status,0]
  5734  0129  30FF               	movlw	255
  5735  012A  00F0               	movwf	??_mTouch_WaitForGoDone
  5736  012B  0870               	movf	??_mTouch_WaitForGoDone,w
  5737  012C  0020               	movlb	0	; select bank0
  5738  012D  00ED               	movwf	_mTouch_delayCount
  5739  012E                     i1l135:	
  5740                           ;mTouch_acquisition.c: 436: while (GO_nDONE && --mTouch_delayCount);
  5741                           
  5742  012E  0021               	movlb	1	; select bank1
  5743  012F  1C9D               	btfss	29,1	;volatile
  5744  0130  0008               	return
  5745  0131  3001               	movlw	1
  5746  0132  0020               	movlb	0	; select bank0
  5747  0133  02ED               	subwf	_mTouch_delayCount,f
  5748  0134  1903               	btfsc	3,2
  5749  0135  0008               	return
  5750  0136  292E               	goto	i1l135
  5751  0137                     __end_of_mTouch_WaitForGoDone:	
  5752                           
  5753                           	psect	text12
  5754  06F9                     __ptext12:	
  5755 ;; *************** function _mTouch_StoreScanB *****************
  5756 ;; Defined at:
  5757 ;;		line 452 in file "mTouch/mTouch_acquisition.c"
  5758 ;; Parameters:    Size  Location     Type
  5759 ;;		None
  5760 ;; Auto vars:     Size  Location     Type
  5761 ;;		None
  5762 ;; Return value:  Size  Location     Type
  5763 ;;		None               void
  5764 ;; Registers used:
  5765 ;;		wreg, status,2, status,0, btemp+1
  5766 ;; Tracked objects:
  5767 ;;		On entry : 0/0
  5768 ;;		On exit  : 0/0
  5769 ;;		Unchanged: 0/0
  5770 ;; Data sizes:     COMMON  BANK0h  BANK0l   BANK1   BANK2   BANK3   BANK4   BANK5   BANK6   BANK7   BANK8   BANK9  BANK1
      +0  BANK11  BANK12
  5771 ;;      Params:         0       0       0       0       0       0       0       0       0       0       0       0       
      +0       0       0
  5772 ;;      Locals:         0       0       0       0       0       0       0       0       0       0       0       0       
      +0       0       0
  5773 ;;      Temps:         12       0       0       0       0       0       0       0       0       0       0       0       
      +0       0       0
  5774 ;;      Totals:        12       0       0       0       0       0       0       0       0       0       0       0       
      +0       0       0
  5775 ;;Total ram usage:       12 bytes
  5776 ;; Hardware stack levels used:    1
  5777 ;; This function calls:
  5778 ;;		Nothing
  5779 ;; This function is called by:
  5780 ;;		_mTouch_Scan
  5781 ;; This function uses a non-reentrant model
  5782 ;;
  5783                           
  5784                           
  5785                           ;psect for function _mTouch_StoreScanB
  5786  06F9                     _mTouch_StoreScanB:	
  5787                           
  5788                           ;mTouch_acquisition.c: 457: mTouch_lastResult = (uint16_t)((ADRESH | 0x04) << 8) + ADRES
      +                          L - mTouch_lastResult;
  5789                           
  5790                           ;incstack = 0
  5791                           ; Regs used in _mTouch_StoreScanB: [wreg+status,2+status,0+btemp+1]
  5792  06F9  0020               	movlb	0	; select bank0
  5793  06FA  096B               	comf	_mTouch_lastResult,w
  5794  06FB  00F0               	movwf	??_mTouch_StoreScanB
  5795  06FC  096C               	comf	_mTouch_lastResult+1,w
  5796  06FD  00F1               	movwf	??_mTouch_StoreScanB+1
  5797  06FE  0AF0               	incf	??_mTouch_StoreScanB,f
  5798  06FF  1903               	skipnz
  5799  0700  0AF1               	incf	??_mTouch_StoreScanB+1,f
  5800  0701  0021               	movlb	1	; select bank1
  5801  0702  081B               	movf	27,w	;volatile
  5802  0703  00F2               	movwf	??_mTouch_StoreScanB+2
  5803  0704  01F3               	clrf	??_mTouch_StoreScanB+3
  5804  0705  081C               	movf	28,w	;volatile
  5805  0706  00F4               	movwf	??_mTouch_StoreScanB+4
  5806  0707  01F5               	clrf	??_mTouch_StoreScanB+5
  5807  0708  0874               	movf	??_mTouch_StoreScanB+4,w
  5808  0709  00F5               	movwf	??_mTouch_StoreScanB+5
  5809  070A  01F4               	clrf	??_mTouch_StoreScanB+4
  5810  070B  3000               	movlw	0
  5811  070C  0474               	iorwf	??_mTouch_StoreScanB+4,w
  5812  070D  00F6               	movwf	??_mTouch_StoreScanB+6
  5813  070E  3004               	movlw	4
  5814  070F  0475               	iorwf	??_mTouch_StoreScanB+5,w
  5815  0710  00F7               	movwf	??_mTouch_StoreScanB+7
  5816  0711  0872               	movf	??_mTouch_StoreScanB+2,w
  5817  0712  0776               	addwf	??_mTouch_StoreScanB+6,w
  5818  0713  00F8               	movwf	??_mTouch_StoreScanB+8
  5819  0714  0873               	movf	??_mTouch_StoreScanB+3,w
  5820  0715  3D77               	addwfc	??_mTouch_StoreScanB+7,w
  5821  0716  00F9               	movwf	??_mTouch_StoreScanB+9
  5822  0717  0870               	movf	??_mTouch_StoreScanB,w
  5823  0718  0778               	addwf	??_mTouch_StoreScanB+8,w
  5824  0719  00FA               	movwf	??_mTouch_StoreScanB+10
  5825  071A  0871               	movf	??_mTouch_StoreScanB+1,w
  5826  071B  3D79               	addwfc	??_mTouch_StoreScanB+9,w
  5827  071C  00FB               	movwf	??_mTouch_StoreScanB+11
  5828  071D  087A               	movf	??_mTouch_StoreScanB+10,w
  5829  071E  0020               	movlb	0	; select bank0
  5830  071F  00EB               	movwf	_mTouch_lastResult
  5831  0720  087B               	movf	??_mTouch_StoreScanB+11,w
  5832  0721  00EC               	movwf	_mTouch_lastResult+1
  5833  0722  0008               	return
  5834  0723                     __end_of_mTouch_StoreScanB:	
  5835                           
  5836                           	psect	text13
  5837  014E                     __ptext13:	
  5838 ;; *************** function _mTouch_StoreScanA *****************
  5839 ;; Defined at:
  5840 ;;		line 439 in file "mTouch/mTouch_acquisition.c"
  5841 ;; Parameters:    Size  Location     Type
  5842 ;;		None
  5843 ;; Auto vars:     Size  Location     Type
  5844 ;;		None
  5845 ;; Return value:  Size  Location     Type
  5846 ;;		None               void
  5847 ;; Registers used:
  5848 ;;		wreg, status,2, status,0
  5849 ;; Tracked objects:
  5850 ;;		On entry : 0/0
  5851 ;;		On exit  : 0/0
  5852 ;;		Unchanged: 0/0
  5853 ;; Data sizes:     COMMON  BANK0h  BANK0l   BANK1   BANK2   BANK3   BANK4   BANK5   BANK6   BANK7   BANK8   BANK9  BANK1
      +0  BANK11  BANK12
  5854 ;;      Params:         0       0       0       0       0       0       0       0       0       0       0       0       
      +0       0       0
  5855 ;;      Locals:         0       0       0       0       0       0       0       0       0       0       0       0       
      +0       0       0
  5856 ;;      Temps:          0       0       0       0       0       0       0       0       0       0       0       0       
      +0       0       0
  5857 ;;      Totals:         0       0       0       0       0       0       0       0       0       0       0       0       
      +0       0       0
  5858 ;;Total ram usage:        0 bytes
  5859 ;; Hardware stack levels used:    1
  5860 ;; This function calls:
  5861 ;;		Nothing
  5862 ;; This function is called by:
  5863 ;;		_mTouch_Scan
  5864 ;; This function uses a non-reentrant model
  5865 ;;
  5866                           
  5867                           
  5868                           ;psect for function _mTouch_StoreScanA
  5869  014E                     _mTouch_StoreScanA:	
  5870                           
  5871                           ;mTouch_acquisition.c: 444: mTouch_lastResult = (uint16_t) (ADRESH << 8) + ADRESL;
  5872                           
  5873                           ;incstack = 0
  5874                           ; Regs used in _mTouch_StoreScanA: [wreg+status,2+status,0]
  5875  014E  0021               	movlb	1	; select bank1
  5876  014F  081C               	movf	28,w	;volatile
  5877  0150  0020               	movlb	0	; select bank0
  5878  0151  01EC               	clrf	_mTouch_lastResult+1
  5879  0152  07EC               	addwf	_mTouch_lastResult+1,f
  5880  0153  0021               	movlb	1	; select bank1
  5881  0154  081B               	movf	27,w	;volatile
  5882  0155  0020               	movlb	0	; select bank0
  5883  0156  01EB               	clrf	_mTouch_lastResult
  5884  0157  07EB               	addwf	_mTouch_lastResult,f
  5885  0158  0008               	return
  5886  0159                     __end_of_mTouch_StoreScanA:	
  5887                           
  5888                           	psect	text14
  5889  0723                     __ptext14:	
  5890 ;; *************** function _mTouch_ScanB_0 *****************
  5891 ;; Defined at:
  5892 ;;		line 514 in file "mTouch/mTouch_acquisition.c"
  5893 ;; Parameters:    Size  Location     Type
  5894 ;;		None
  5895 ;; Auto vars:     Size  Location     Type
  5896 ;;		None
  5897 ;; Return value:  Size  Location     Type
  5898 ;;		None               void
  5899 ;; Registers used:
  5900 ;;		None
  5901 ;; Tracked objects:
  5902 ;;		On entry : 0/0
  5903 ;;		On exit  : 0/0
  5904 ;;		Unchanged: 0/0
  5905 ;; Data sizes:     COMMON  BANK0h  BANK0l   BANK1   BANK2   BANK3   BANK4   BANK5   BANK6   BANK7   BANK8   BANK9  BANK1
      +0  BANK11  BANK12
  5906 ;;      Params:         0       0       0       0       0       0       0       0       0       0       0       0       
      +0       0       0
  5907 ;;      Locals:         0       0       0       0       0       0       0       0       0       0       0       0       
      +0       0       0
  5908 ;;      Temps:          0       0       0       0       0       0       0       0       0       0       0       0       
      +0       0       0
  5909 ;;      Totals:         0       0       0       0       0       0       0       0       0       0       0       0       
      +0       0       0
  5910 ;;Total ram usage:        0 bytes
  5911 ;; Hardware stack levels used:    1
  5912 ;; This function calls:
  5913 ;;		Nothing
  5914 ;; This function is called by:
  5915 ;;		_mTouch_Scan
  5916 ;; This function uses a non-reentrant model
  5917 ;;
  5918                           
  5919                           
  5920                           ;psect for function _mTouch_ScanB_0
  5921  0723                     _mTouch_ScanB_0:	
  5922                           
  5923                           ;incstack = 0
  5924                           ; Regs used in _mTouch_ScanB_0: []
  5925  0723  0022               	banksel	269	;# 
  5926  0724  108D               	bcf	13,1	;# 
  5927  0725  0021               	banksel	157	;# 
  5928  0726  3029               	movlw	41	;# 
  5929  0727  009D               	movwf	29	;# 
  5930  0728  300D               	movlw	13	;# 
  5931  0729  0086               	movwf	6	;# 
  5932  072A  3001               	movlw	1	;# 
  5933  072B  0087               	movwf	7	;# 
  5934  072C  308D               	movlw	141	;# 
  5935  072D  0084               	movwf	4	;# 
  5936  072E  3000               	movlw	0	;# 
  5937  072F  0085               	movwf	5	;# 
  5938  0730  0020               	banksel	_mTouch_delayCount	;# 
  5939  0731  3005               	movlw	5	;# 
  5940  0732  00ED               	movwf	_mTouch_delayCount& (0+127)	;# 
  5941  0733  0BED               	decfsz	_mTouch_delayCount& (0+127),f	;# 
  5942  0734  2F22               	goto	($+-1)	;# 
  5943  0735  0021               	banksel	157	;# 
  5944  0736  3031               	movlw	49	;# 
  5945  0737  1400               	bsf	0,0	;# 
  5946  0738  009D               	movwf	29	;# 
  5947  0739  0020               	banksel	_mTouch_delayCount	;# 
  5948  073A  3005               	movlw	5	;# 
  5949  073B  00ED               	movwf	_mTouch_delayCount& (0+127)	;# 
  5950  073C  0BED               	decfsz	_mTouch_delayCount& (0+127),f	;# 
  5951  073D  2F22               	goto	($+-1)	;# 
  5952  073E  0021               	banksel	157	;# 
  5953  073F  149D               	bsf	29,1	;# 
  5954  0740  0000               	nop	;# 
  5955  0741  0000               	nop	;# 
  5956  0742  0000               	nop	;# 
  5957  0743  1001               	bcf	1,0	;# 
  5958  0744  1000               	bcf	0,0	;# 
  5959  0745  0008               	return
  5960  0746                     __end_of_mTouch_ScanB_0:	
  5961                           
  5962                           	psect	text15
  5963  0746                     __ptext15:	
  5964 ;; *************** function _mTouch_ScanB_1 *****************
  5965 ;; Defined at:
  5966 ;;		line 517 in file "mTouch/mTouch_acquisition.c"
  5967 ;; Parameters:    Size  Location     Type
  5968 ;;		None
  5969 ;; Auto vars:     Size  Location     Type
  5970 ;;		None
  5971 ;; Return value:  Size  Location     Type
  5972 ;;		None               void
  5973 ;; Registers used:
  5974 ;;		None
  5975 ;; Tracked objects:
  5976 ;;		On entry : 0/0
  5977 ;;		On exit  : 0/0
  5978 ;;		Unchanged: 0/0
  5979 ;; Data sizes:     COMMON  BANK0h  BANK0l   BANK1   BANK2   BANK3   BANK4   BANK5   BANK6   BANK7   BANK8   BANK9  BANK1
      +0  BANK11  BANK12
  5980 ;;      Params:         0       0       0       0       0       0       0       0       0       0       0       0       
      +0       0       0
  5981 ;;      Locals:         0       0       0       0       0       0       0       0       0       0       0       0       
      +0       0       0
  5982 ;;      Temps:          0       0       0       0       0       0       0       0       0       0       0       0       
      +0       0       0
  5983 ;;      Totals:         0       0       0       0       0       0       0       0       0       0       0       0       
      +0       0       0
  5984 ;;Total ram usage:        0 bytes
  5985 ;; Hardware stack levels used:    1
  5986 ;; This function calls:
  5987 ;;		Nothing
  5988 ;; This function is called by:
  5989 ;;		_mTouch_Scan
  5990 ;; This function uses a non-reentrant model
  5991 ;;
  5992                           
  5993                           
  5994                           ;psect for function _mTouch_ScanB_1
  5995  0746                     _mTouch_ScanB_1:	
  5996                           
  5997                           ;incstack = 0
  5998                           ; Regs used in _mTouch_ScanB_1: []
  5999  0746  0022               	banksel	269	;# 
  6000  0747  100D               	bcf	13,0	;# 
  6001  0748  0021               	banksel	157	;# 
  6002  0749  3031               	movlw	49	;# 
  6003  074A  009D               	movwf	29	;# 
  6004  074B  300D               	movlw	13	;# 
  6005  074C  0086               	movwf	6	;# 
  6006  074D  3001               	movlw	1	;# 
  6007  074E  0087               	movwf	7	;# 
  6008  074F  308D               	movlw	141	;# 
  6009  0750  0084               	movwf	4	;# 
  6010  0751  3000               	movlw	0	;# 
  6011  0752  0085               	movwf	5	;# 
  6012  0753  0020               	banksel	_mTouch_delayCount	;# 
  6013  0754  3005               	movlw	5	;# 
  6014  0755  00ED               	movwf	_mTouch_delayCount& (0+127)	;# 
  6015  0756  0BED               	decfsz	_mTouch_delayCount& (0+127),f	;# 
  6016  0757  2F45               	goto	($+-1)	;# 
  6017  0758  0021               	banksel	157	;# 
  6018  0759  3029               	movlw	41	;# 
  6019  075A  1480               	bsf	0,1	;# 
  6020  075B  009D               	movwf	29	;# 
  6021  075C  0020               	banksel	_mTouch_delayCount	;# 
  6022  075D  3005               	movlw	5	;# 
  6023  075E  00ED               	movwf	_mTouch_delayCount& (0+127)	;# 
  6024  075F  0BED               	decfsz	_mTouch_delayCount& (0+127),f	;# 
  6025  0760  2F45               	goto	($+-1)	;# 
  6026  0761  0021               	banksel	157	;# 
  6027  0762  149D               	bsf	29,1	;# 
  6028  0763  0000               	nop	;# 
  6029  0764  0000               	nop	;# 
  6030  0765  0000               	nop	;# 
  6031  0766  1081               	bcf	1,1	;# 
  6032  0767  1080               	bcf	0,1	;# 
  6033  0768  0008               	return
  6034  0769                     __end_of_mTouch_ScanB_1:	
  6035                           
  6036                           	psect	text16
  6037  0769                     __ptext16:	
  6038 ;; *************** function _mTouch_ScanA_0 *****************
  6039 ;; Defined at:
  6040 ;;		line 514 in file "mTouch/mTouch_acquisition.c"
  6041 ;; Parameters:    Size  Location     Type
  6042 ;;		None
  6043 ;; Auto vars:     Size  Location     Type
  6044 ;;		None
  6045 ;; Return value:  Size  Location     Type
  6046 ;;		None               void
  6047 ;; Registers used:
  6048 ;;		None
  6049 ;; Tracked objects:
  6050 ;;		On entry : 0/0
  6051 ;;		On exit  : 0/0
  6052 ;;		Unchanged: 0/0
  6053 ;; Data sizes:     COMMON  BANK0h  BANK0l   BANK1   BANK2   BANK3   BANK4   BANK5   BANK6   BANK7   BANK8   BANK9  BANK1
      +0  BANK11  BANK12
  6054 ;;      Params:         0       0       0       0       0       0       0       0       0       0       0       0       
      +0       0       0
  6055 ;;      Locals:         0       0       0       0       0       0       0       0       0       0       0       0       
      +0       0       0
  6056 ;;      Temps:          0       0       0       0       0       0       0       0       0       0       0       0       
      +0       0       0
  6057 ;;      Totals:         0       0       0       0       0       0       0       0       0       0       0       0       
      +0       0       0
  6058 ;;Total ram usage:        0 bytes
  6059 ;; Hardware stack levels used:    1
  6060 ;; This function calls:
  6061 ;;		Nothing
  6062 ;; This function is called by:
  6063 ;;		_mTouch_Scan
  6064 ;; This function uses a non-reentrant model
  6065 ;;
  6066                           
  6067                           
  6068                           ;psect for function _mTouch_ScanA_0
  6069  0769                     _mTouch_ScanA_0:	
  6070                           
  6071                           ;incstack = 0
  6072                           ; Regs used in _mTouch_ScanA_0: []
  6073  0769  0022               	banksel	269	;# 
  6074  076A  148D               	bsf	13,1	;# 
  6075  076B  0021               	banksel	157	;# 
  6076  076C  3029               	movlw	41	;# 
  6077  076D  009D               	movwf	29	;# 
  6078  076E  300D               	movlw	13	;# 
  6079  076F  0086               	movwf	6	;# 
  6080  0770  3001               	movlw	1	;# 
  6081  0771  0087               	movwf	7	;# 
  6082  0772  308D               	movlw	141	;# 
  6083  0773  0084               	movwf	4	;# 
  6084  0774  3000               	movlw	0	;# 
  6085  0775  0085               	movwf	5	;# 
  6086  0776  0020               	banksel	_mTouch_delayCount	;# 
  6087  0777  3005               	movlw	5	;# 
  6088  0778  00ED               	movwf	_mTouch_delayCount& (0+127)	;# 
  6089  0779  0BED               	decfsz	_mTouch_delayCount& (0+127),f	;# 
  6090  077A  2F68               	goto	($+-1)	;# 
  6091  077B  0021               	banksel	157	;# 
  6092  077C  3031               	movlw	49	;# 
  6093  077D  1400               	bsf	0,0	;# 
  6094  077E  009D               	movwf	29	;# 
  6095  077F  0020               	banksel	_mTouch_delayCount	;# 
  6096  0780  3005               	movlw	5	;# 
  6097  0781  00ED               	movwf	_mTouch_delayCount& (0+127)	;# 
  6098  0782  0BED               	decfsz	_mTouch_delayCount& (0+127),f	;# 
  6099  0783  2F68               	goto	($+-1)	;# 
  6100  0784  0021               	banksel	157	;# 
  6101  0785  149D               	bsf	29,1	;# 
  6102  0786  0000               	nop	;# 
  6103  0787  0000               	nop	;# 
  6104  0788  0000               	nop	;# 
  6105  0789  1401               	bsf	1,0	;# 
  6106  078A  1000               	bcf	0,0	;# 
  6107  078B  0008               	return
  6108  078C                     __end_of_mTouch_ScanA_0:	
  6109                           
  6110                           	psect	text17
  6111  078C                     __ptext17:	
  6112 ;; *************** function _mTouch_ScanA_1 *****************
  6113 ;; Defined at:
  6114 ;;		line 517 in file "mTouch/mTouch_acquisition.c"
  6115 ;; Parameters:    Size  Location     Type
  6116 ;;		None
  6117 ;; Auto vars:     Size  Location     Type
  6118 ;;		None
  6119 ;; Return value:  Size  Location     Type
  6120 ;;		None               void
  6121 ;; Registers used:
  6122 ;;		None
  6123 ;; Tracked objects:
  6124 ;;		On entry : 0/0
  6125 ;;		On exit  : 0/0
  6126 ;;		Unchanged: 0/0
  6127 ;; Data sizes:     COMMON  BANK0h  BANK0l   BANK1   BANK2   BANK3   BANK4   BANK5   BANK6   BANK7   BANK8   BANK9  BANK1
      +0  BANK11  BANK12
  6128 ;;      Params:         0       0       0       0       0       0       0       0       0       0       0       0       
      +0       0       0
  6129 ;;      Locals:         0       0       0       0       0       0       0       0       0       0       0       0       
      +0       0       0
  6130 ;;      Temps:          0       0       0       0       0       0       0       0       0       0       0       0       
      +0       0       0
  6131 ;;      Totals:         0       0       0       0       0       0       0       0       0       0       0       0       
      +0       0       0
  6132 ;;Total ram usage:        0 bytes
  6133 ;; Hardware stack levels used:    1
  6134 ;; This function calls:
  6135 ;;		Nothing
  6136 ;; This function is called by:
  6137 ;;		_mTouch_Scan
  6138 ;; This function uses a non-reentrant model
  6139 ;;
  6140                           
  6141                           
  6142                           ;psect for function _mTouch_ScanA_1
  6143  078C                     _mTouch_ScanA_1:	
  6144                           
  6145                           ;incstack = 0
  6146                           ; Regs used in _mTouch_ScanA_1: []
  6147  078C  0022               	banksel	269	;# 
  6148  078D  140D               	bsf	13,0	;# 
  6149  078E  0021               	banksel	157	;# 
  6150  078F  3031               	movlw	49	;# 
  6151  0790  009D               	movwf	29	;# 
  6152  0791  300D               	movlw	13	;# 
  6153  0792  0086               	movwf	6	;# 
  6154  0793  3001               	movlw	1	;# 
  6155  0794  0087               	movwf	7	;# 
  6156  0795  308D               	movlw	141	;# 
  6157  0796  0084               	movwf	4	;# 
  6158  0797  3000               	movlw	0	;# 
  6159  0798  0085               	movwf	5	;# 
  6160  0799  0020               	banksel	_mTouch_delayCount	;# 
  6161  079A  3005               	movlw	5	;# 
  6162  079B  00ED               	movwf	_mTouch_delayCount& (0+127)	;# 
  6163  079C  0BED               	decfsz	_mTouch_delayCount& (0+127),f	;# 
  6164  079D  2F8B               	goto	($+-1)	;# 
  6165  079E  0021               	banksel	157	;# 
  6166  079F  3029               	movlw	41	;# 
  6167  07A0  1480               	bsf	0,1	;# 
  6168  07A1  009D               	movwf	29	;# 
  6169  07A2  0020               	banksel	_mTouch_delayCount	;# 
  6170  07A3  3005               	movlw	5	;# 
  6171  07A4  00ED               	movwf	_mTouch_delayCount& (0+127)	;# 
  6172  07A5  0BED               	decfsz	_mTouch_delayCount& (0+127),f	;# 
  6173  07A6  2F8B               	goto	($+-1)	;# 
  6174  07A7  0021               	banksel	157	;# 
  6175  07A8  149D               	bsf	29,1	;# 
  6176  07A9  0000               	nop	;# 
  6177  07AA  0000               	nop	;# 
  6178  07AB  0000               	nop	;# 
  6179  07AC  1481               	bsf	1,1	;# 
  6180  07AD  1080               	bcf	0,1	;# 
  6181  07AE  0008               	return
  6182  07AF                     __end_of_mTouch_ScanA_1:	
  6183                           
  6184                           	psect	text18
  6185  0645                     __ptext18:	
  6186 ;; *************** function _mTouch_DecimationFilter *****************
  6187 ;; Defined at:
  6188 ;;		line 372 in file "mTouch/mTouch_acquisition.c"
  6189 ;; Parameters:    Size  Location     Type
  6190 ;;		None
  6191 ;; Auto vars:     Size  Location     Type
  6192 ;;  result          2    5[COMMON] unsigned int 
  6193 ;; Return value:  Size  Location     Type
  6194 ;;		None               void
  6195 ;; Registers used:
  6196 ;;		wreg, fsr1l, fsr1h, status,2, status,0
  6197 ;; Tracked objects:
  6198 ;;		On entry : 0/0
  6199 ;;		On exit  : 0/0
  6200 ;;		Unchanged: 0/0
  6201 ;; Data sizes:     COMMON  BANK0h  BANK0l   BANK1   BANK2   BANK3   BANK4   BANK5   BANK6   BANK7   BANK8   BANK9  BANK1
      +0  BANK11  BANK12
  6202 ;;      Params:         0       0       0       0       0       0       0       0       0       0       0       0       
      +0       0       0
  6203 ;;      Locals:         2       0       0       0       0       0       0       0       0       0       0       0       
      +0       0       0
  6204 ;;      Temps:          5       0       0       0       0       0       0       0       0       0       0       0       
      +0       0       0
  6205 ;;      Totals:         7       0       0       0       0       0       0       0       0       0       0       0       
      +0       0       0
  6206 ;;Total ram usage:        7 bytes
  6207 ;; Hardware stack levels used:    1
  6208 ;; This function calls:
  6209 ;;		Nothing
  6210 ;; This function is called by:
  6211 ;;		_mTouch_Scan
  6212 ;; This function uses a non-reentrant model
  6213 ;;
  6214                           
  6215                           
  6216                           ;psect for function _mTouch_DecimationFilter
  6217  0645                     _mTouch_DecimationFilter:	
  6218                           
  6219                           ;mTouch_acquisition.c: 376: uint16_t result = (uint16_t)((*mTouch_currentAcqData).result
      +                          .v >> 4);
  6220                           
  6221                           ;incstack = 0
  6222                           ; Regs used in _mTouch_DecimationFilter: [wreg+fsr1l+fsr1h+status,2+status,0]
  6223  0645  087C               	movf	_mTouch_currentAcqData,w
  6224  0646  3E02               	addlw	2
  6225  0647  0086               	movwf	6
  6226  0648  0187               	clrf	7
  6227  0649  3F40               	moviw [0]fsr1
  6228  064A  00F0               	movwf	??_mTouch_DecimationFilter
  6229  064B  3F41               	moviw [1]fsr1
  6230  064C  00F1               	movwf	??_mTouch_DecimationFilter+1
  6231  064D  3004               	movlw	4
  6232  064E                     u60_25:	
  6233  064E  36F1               	lsrf	??_mTouch_DecimationFilter+1,f
  6234  064F  0CF0               	rrf	??_mTouch_DecimationFilter,f
  6235  0650  0B89               	decfsz	9,f
  6236  0651  2E4E               	goto	u60_25
  6237  0652  0870               	movf	??_mTouch_DecimationFilter,w
  6238  0653  00F5               	movwf	mTouch_DecimationFilter@result
  6239  0654  0871               	movf	??_mTouch_DecimationFilter+1,w
  6240  0655  00F6               	movwf	mTouch_DecimationFilter@result+1
  6241                           
  6242                           ;mTouch_acquisition.c: 394: if ((uint16_t)(mTouch_lastResult) > (uint16_t)(result + 10))
  6243  0656  0875               	movf	mTouch_DecimationFilter@result,w
  6244  0657  3E0A               	addlw	10
  6245  0658  00F0               	movwf	??_mTouch_DecimationFilter
  6246  0659  3000               	movlw	0
  6247  065A  3D76               	addwfc	mTouch_DecimationFilter@result+1,w
  6248  065B  00F1               	movwf	??_mTouch_DecimationFilter+1
  6249  065C  0020               	movlb	0	; select bank0
  6250  065D  086C               	movf	_mTouch_lastResult+1,w
  6251  065E  0271               	subwf	??_mTouch_DecimationFilter+1,w
  6252  065F  1D03               	skipz
  6253  0660  2E63               	goto	u61_25
  6254  0661  086B               	movf	_mTouch_lastResult,w
  6255  0662  0270               	subwf	??_mTouch_DecimationFilter,w
  6256  0663                     u61_25:	
  6257  0663  1803               	skipnc
  6258  0664  2E6A               	goto	i1l1654
  6259                           
  6260                           ;mTouch_acquisition.c: 395: {
  6261                           ;mTouch_acquisition.c: 396: result += 10;
  6262  0665  300A               	movlw	10
  6263  0666  07F5               	addwf	mTouch_DecimationFilter@result,f
  6264  0667  3000               	movlw	0
  6265  0668  3DF6               	addwfc	mTouch_DecimationFilter@result+1,f
  6266                           
  6267                           ;mTouch_acquisition.c: 397: }
  6268  0669  2E8A               	goto	i1l1664
  6269  066A                     i1l1654:	
  6270                           
  6271                           ;mTouch_acquisition.c: 398: else if (result > 10)
  6272  066A  3000               	movlw	0
  6273  066B  0276               	subwf	mTouch_DecimationFilter@result+1,w
  6274  066C  300B               	movlw	11
  6275  066D  1903               	skipnz
  6276  066E  0275               	subwf	mTouch_DecimationFilter@result,w
  6277  066F  1C03               	skipc
  6278  0670  2E84               	goto	i1l1662
  6279                           
  6280                           ;mTouch_acquisition.c: 399: {
  6281                           ;mTouch_acquisition.c: 400: if ((uint16_t)(mTouch_lastResult) < result - 10)
  6282  0671  0875               	movf	mTouch_DecimationFilter@result,w
  6283  0672  3EF6               	addlw	246
  6284  0673  00F0               	movwf	??_mTouch_DecimationFilter
  6285  0674  30FF               	movlw	255
  6286  0675  3D76               	addwfc	mTouch_DecimationFilter@result+1,w
  6287  0676  00F1               	movwf	??_mTouch_DecimationFilter+1
  6288  0677  0871               	movf	??_mTouch_DecimationFilter+1,w
  6289  0678  026C               	subwf	_mTouch_lastResult+1,w
  6290  0679  1D03               	skipz
  6291  067A  2E7D               	goto	u63_25
  6292  067B  0870               	movf	??_mTouch_DecimationFilter,w
  6293  067C  026B               	subwf	_mTouch_lastResult,w
  6294  067D                     u63_25:	
  6295  067D  1803               	skipnc
  6296  067E  2E84               	goto	i1l1662
  6297                           
  6298                           ;mTouch_acquisition.c: 401: {
  6299                           ;mTouch_acquisition.c: 402: result -= 10;
  6300  067F  300A               	movlw	10
  6301  0680  02F5               	subwf	mTouch_DecimationFilter@result,f
  6302  0681  3000               	movlw	0
  6303  0682  3BF6               	subwfb	mTouch_DecimationFilter@result+1,f
  6304                           
  6305                           ;mTouch_acquisition.c: 403: } else {
  6306  0683  2E8A               	goto	i1l1664
  6307  0684                     i1l1662:	
  6308                           ;mTouch_acquisition.c: 405: }
  6309                           ;mTouch_acquisition.c: 406: }
  6310                           
  6311                           ;mTouch_acquisition.c: 404: result = mTouch_lastResult;
  6312                           
  6313                           
  6314                           ;mTouch_acquisition.c: 407: else
  6315                           ;mTouch_acquisition.c: 408: {
  6316                           ;mTouch_acquisition.c: 409: result = mTouch_lastResult;
  6317  0684  086C               	movf	_mTouch_lastResult+1,w
  6318  0685  01F6               	clrf	mTouch_DecimationFilter@result+1
  6319  0686  07F6               	addwf	mTouch_DecimationFilter@result+1,f
  6320  0687  086B               	movf	_mTouch_lastResult,w
  6321  0688  01F5               	clrf	mTouch_DecimationFilter@result
  6322  0689  07F5               	addwf	mTouch_DecimationFilter@result,f
  6323  068A                     i1l1664:	
  6324                           
  6325                           ;mTouch_acquisition.c: 410: }
  6326                           ;mTouch_acquisition.c: 419: (*mTouch_currentAcqData).result.v &= 0x000F;
  6327  068A  087C               	movf	_mTouch_currentAcqData,w
  6328  068B  3E02               	addlw	2
  6329  068C  0086               	movwf	6
  6330  068D  0187               	clrf	7
  6331  068E  300F               	movlw	15
  6332  068F  0581               	andwf	1,f
  6333  0690  3141               	addfsr 1,1
  6334  0691  3000               	movlw	0
  6335  0692  0581               	andwf	1,f
  6336                           
  6337                           ;mTouch_acquisition.c: 420: (*mTouch_currentAcqData).result.v |= (uint16_t)(result << 4);
  6338  0693  0876               	movf	mTouch_DecimationFilter@result+1,w
  6339  0694  00F1               	movwf	??_mTouch_DecimationFilter+1
  6340  0695  0875               	movf	mTouch_DecimationFilter@result,w
  6341  0696  00F0               	movwf	??_mTouch_DecimationFilter
  6342  0697  0EF0               	swapf	??_mTouch_DecimationFilter,f
  6343  0698  0EF1               	swapf	??_mTouch_DecimationFilter+1,f
  6344  0699  30F0               	movlw	240
  6345  069A  05F1               	andwf	??_mTouch_DecimationFilter+1,f
  6346  069B  0870               	movf	??_mTouch_DecimationFilter,w
  6347  069C  390F               	andlw	15
  6348  069D  04F1               	iorwf	??_mTouch_DecimationFilter+1,f
  6349  069E  30F0               	movlw	240
  6350  069F  05F0               	andwf	??_mTouch_DecimationFilter,f
  6351  06A0  087C               	movf	_mTouch_currentAcqData,w
  6352  06A1  3E02               	addlw	2
  6353  06A2  0086               	movwf	6
  6354  06A3  0187               	clrf	7
  6355  06A4  0870               	movf	??_mTouch_DecimationFilter,w
  6356  06A5  0481               	iorwf	1,f
  6357  06A6  3141               	addfsr 1,1
  6358  06A7  0871               	movf	??_mTouch_DecimationFilter+1,w
  6359  06A8  0481               	iorwf	1,f
  6360                           
  6361                           ;mTouch_acquisition.c: 427: (*mTouch_currentAcqData).accumulator.v += (uint16_t)((*mTouc
      +                          h_currentAcqData).result.v >> 4);
  6362  06A9  087C               	movf	_mTouch_currentAcqData,w
  6363  06AA  3E02               	addlw	2
  6364  06AB  0086               	movwf	6
  6365  06AC  0187               	clrf	7
  6366  06AD  3F40               	moviw [0]fsr1
  6367  06AE  00F0               	movwf	??_mTouch_DecimationFilter
  6368  06AF  3F41               	moviw [1]fsr1
  6369  06B0  00F1               	movwf	??_mTouch_DecimationFilter+1
  6370  06B1  3004               	movlw	4
  6371  06B2                     u64_25:	
  6372  06B2  36F1               	lsrf	??_mTouch_DecimationFilter+1,f
  6373  06B3  0CF0               	rrf	??_mTouch_DecimationFilter,f
  6374  06B4  0B89               	decfsz	9,f
  6375  06B5  2EB2               	goto	u64_25
  6376  06B6  0870               	movf	??_mTouch_DecimationFilter,w
  6377  06B7  00F2               	movwf	??_mTouch_DecimationFilter+2
  6378  06B8  0871               	movf	??_mTouch_DecimationFilter+1,w
  6379  06B9  00F3               	movwf	??_mTouch_DecimationFilter+3
  6380  06BA  01F4               	clrf	??_mTouch_DecimationFilter+4
  6381  06BB  087C               	movf	_mTouch_currentAcqData,w
  6382  06BC  0086               	movwf	6
  6383  06BD  0187               	clrf	7
  6384  06BE  0872               	movf	??_mTouch_DecimationFilter+2,w
  6385  06BF  0781               	addwf	1,f
  6386  06C0  3141               	addfsr 1,1
  6387  06C1  0873               	movf	??_mTouch_DecimationFilter+3,w
  6388  06C2  3D81               	addwfc	1,f
  6389  06C3  3141               	addfsr 1,1
  6390  06C4  0874               	movf	??_mTouch_DecimationFilter+4,w
  6391  06C5  3D81               	addwfc	1,f
  6392  06C6  0008               	return
  6393  06C7                     __end_of_mTouch_DecimationFilter:	
  6394                           
  6395                           	psect	text19
  6396  0163                     __ptext19:	
  6397 ;; *************** function _mTouch_ChangeMode *****************
  6398 ;; Defined at:
  6399 ;;		line 469 in file "mTouch/mTouch_acquisition.c"
  6400 ;; Parameters:    Size  Location     Type
  6401 ;;		None
  6402 ;; Auto vars:     Size  Location     Type
  6403 ;;		None
  6404 ;; Return value:  Size  Location     Type
  6405 ;;		None               void
  6406 ;; Registers used:
  6407 ;;		wreg, status,2
  6408 ;; Tracked objects:
  6409 ;;		On entry : 0/0
  6410 ;;		On exit  : 0/0
  6411 ;;		Unchanged: 0/0
  6412 ;; Data sizes:     COMMON  BANK0h  BANK0l   BANK1   BANK2   BANK3   BANK4   BANK5   BANK6   BANK7   BANK8   BANK9  BANK1
      +0  BANK11  BANK12
  6413 ;;      Params:         0       0       0       0       0       0       0       0       0       0       0       0       
      +0       0       0
  6414 ;;      Locals:         0       0       0       0       0       0       0       0       0       0       0       0       
      +0       0       0
  6415 ;;      Temps:          1       0       0       0       0       0       0       0       0       0       0       0       
      +0       0       0
  6416 ;;      Totals:         1       0       0       0       0       0       0       0       0       0       0       0       
      +0       0       0
  6417 ;;Total ram usage:        1 bytes
  6418 ;; Hardware stack levels used:    1
  6419 ;; This function calls:
  6420 ;;		Nothing
  6421 ;; This function is called by:
  6422 ;;		_mTouch_Scan
  6423 ;;		_mTouch_Init
  6424 ;;		_mTouch_Decode
  6425 ;; This function uses a non-reentrant model
  6426 ;;
  6427                           
  6428                           
  6429                           ;psect for function _mTouch_ChangeMode
  6430  0163                     _mTouch_ChangeMode:	
  6431                           
  6432                           ;mTouch_acquisition.c: 472: mTouch_currentAcqData = 0;
  6433                           
  6434                           ;incstack = 0
  6435                           ; Regs used in _mTouch_ChangeMode: [wreg+status,2]
  6436  0163  01FC               	clrf	_mTouch_currentAcqData
  6437                           
  6438                           ;mTouch_acquisition.c: 491: mTouch_currentScan = 0;
  6439  0164  01FD               	clrf	_mTouch_currentScan
  6440                           
  6441                           ;mTouch_acquisition.c: 509: mTouch_stateVars.sampleCounter = 30;
  6442  0165  301E               	movlw	30
  6443  0166  00F0               	movwf	??_mTouch_ChangeMode
  6444  0167  0870               	movf	??_mTouch_ChangeMode,w
  6445  0168  0020               	movlb	0	; select bank0
  6446  0169  00DE               	movwf	_mTouch_stateVars
  6447  016A  0008               	return
  6448  016B                     __end_of_mTouch_ChangeMode:	
  6449  0008                     
  6450                           	psect	functab
  6451  0100                     __pfunctab:	
  6452  0100                     fptable:	
  6453  0100  2900               	goto	fptable	;no entries
  6454  0101                     __i1fptable:	
  6455  0101                     i1fptable:	
  6456  0101  3181               	movlp	high i1fptable
  6457  0102  0782               	addwf	2,f
  6458  0103                     i1fpbase:	
  6459  0103  2903               	goto	i1fpbase	; Call via a null pointer and you will get stuck here.
  6460  0104                     fp__mTouch_ScanA_1:	
  6461  0104  3187  2F8C         	ljmp	_mTouch_ScanA_1
  6462  0106                     fp__mTouch_ScanA_0:	
  6463  0106  3187  2F69         	ljmp	_mTouch_ScanA_0
  6464  0108                     fp__mTouch_ScanB_1:	
  6465  0108  3187  2F46         	ljmp	_mTouch_ScanB_1
  6466  010A                     fp__mTouch_ScanB_0:	
  6467  010A  3187  2F23         	ljmp	_mTouch_ScanB_0
  6468  010C                     __end_of__i1fptable:	
  6469  007E                     btemp	set	126	;btemp
  6470  007E                     wtemp	set	126
  6471  007E                     wtemp0	set	126
  6472  0080                     wtemp1	set	128
  6473  0082                     wtemp2	set	130
  6474  0084                     wtemp3	set	132
  6475  0086                     wtemp4	set	134
  6476  0088                     wtemp5	set	136
  6477  007F                     wtemp6	set	127
  6478  007E                     ttemp	set	126
  6479  007E                     ttemp0	set	126
  6480  0081                     ttemp1	set	129
  6481  0084                     ttemp2	set	132
  6482  0087                     ttemp3	set	135
  6483  007F                     ttemp4	set	127
  6484  007E                     ltemp	set	126
  6485  007E                     ltemp0	set	126
  6486  0082                     ltemp1	set	130
  6487  0086                     ltemp2	set	134
  6488  0080                     ltemp3	set	128


Data Sizes:
    Strings     56
    Constant    1036
    Data        3
    BSS         36
    Persistent  0
    Stack       0

Auto Spaces:
    Space          Size  Autos    Used
    COMMON           14     12      14
    BANK0h           63     28      54
    BANK0l           15      0      11
    BANK1             0      0       0
    BANK2             0      0       0
    BANK3            78      0       0
    BANK4            80      0       0
    BANK5            80      0       0
    BANK6            80      0       0
    BANK7            80      0       0
    BANK8            80      0       0
    BANK9            80      0       0
    BANK10           80      0       0
    BANK11           80      0       0
    BANK12           48      0       0

Pointer List with Targets:

    printf@f	PTR const unsigned char  size(2) Largest target is 56
		 -> STR_1(CODE[56]), 

    printf@ap	PTR void [1] size(1) Largest target is 2
		 -> ?_printf(BANK0h[2]), 

    S344$_cp	PTR const unsigned char  size(1) Largest target is 0

    _val._str._cp	PTR const unsigned char  size(1) Largest target is 0

    mTouch_currentAcqData	PTR struct . size(1) Largest target is 8
		 -> NULL(NULL[0]), mTouch_acqData(BANK0h[8]), 

    mTouch_ScanB	const PTR FTN()void [2] size(1) Largest target is 0
		 -> mTouch_ScanB_1(), mTouch_ScanB_0(), 

    mTouch_ScanA	const PTR FTN()void [2] size(1) Largest target is 0
		 -> mTouch_ScanA_1(), mTouch_ScanA_0(), 


Critical Paths under _main in COMMON

    None.

Critical Paths under _mTouch_Scan in COMMON

    _mTouch_Scan->_mTouch_StoreScanB

Critical Paths under _main in BANK0h

    _main->_printf
    _printf->_putch

Critical Paths under _mTouch_Scan in BANK0h

    None.

Critical Paths under _main in BANK0l

    None.

Critical Paths under _mTouch_Scan in BANK0l

    None.

Critical Paths under _main in BANK1

    None.

Critical Paths under _mTouch_Scan in BANK1

    None.

Critical Paths under _main in BANK2

    None.

Critical Paths under _mTouch_Scan in BANK2

    None.

Critical Paths under _main in BANK3

    None.

Critical Paths under _mTouch_Scan in BANK3

    None.

Critical Paths under _main in BANK4

    None.

Critical Paths under _mTouch_Scan in BANK4

    None.

Critical Paths under _main in BANK5

    None.

Critical Paths under _mTouch_Scan in BANK5

    None.

Critical Paths under _main in BANK6

    None.

Critical Paths under _mTouch_Scan in BANK6

    None.

Critical Paths under _main in BANK7

    None.

Critical Paths under _mTouch_Scan in BANK7

    None.

Critical Paths under _main in BANK8

    None.

Critical Paths under _mTouch_Scan in BANK8

    None.

Critical Paths under _main in BANK9

    None.

Critical Paths under _mTouch_Scan in BANK9

    None.

Critical Paths under _main in BANK10

    None.

Critical Paths under _mTouch_Scan in BANK10

    None.

Critical Paths under _main in BANK11

    None.

Critical Paths under _mTouch_Scan in BANK11

    None.

Critical Paths under _main in BANK12

    None.

Critical Paths under _mTouch_Scan in BANK12

    None.

Call Graph Tables:

 ---------------------------------------------------------------------------------
 (Depth) Function   	        Calls       Base Space   Used Autos Params    Refs
 ---------------------------------------------------------------------------------
 (0) _main                                                16    16      0    2028
                                             12 BANK0h    16    16      0
                _ConfigureOscillator
                            _InitApp
                          _UART_Read
                 _UART_Read_No_Block
                             ___bmul
                             ___wmul
                             _printf
 ---------------------------------------------------------------------------------
 (1) _printf                                              13    11      2     121
                                              5 BANK0h     7     5      2
                              _putch
 ---------------------------------------------------------------------------------
 (2) _putch                                                1     1      0      22
                                              4 BANK0h     1     1      0
 ---------------------------------------------------------------------------------
 (1) ___wmul                                               6     2      4    1006
                                              4 BANK0h     6     2      4
 ---------------------------------------------------------------------------------
 (1) ___bmul                                               4     3      1     536
                                              4 BANK0h     4     3      1
 ---------------------------------------------------------------------------------
 (1) _UART_Read_No_Block                                   4     4      0       2
                                              4 BANK0h     4     4      0
                          _UART_Init
 ---------------------------------------------------------------------------------
 (1) _UART_Read                                            0     0      0       0
 ---------------------------------------------------------------------------------
 (1) _InitApp                                              0     0      0       0
                          _UART_Init
 ---------------------------------------------------------------------------------
 (2) _UART_Init                                            0     0      0       0
 ---------------------------------------------------------------------------------
 (1) _ConfigureOscillator                                  0     0      0       0
 ---------------------------------------------------------------------------------
 Estimated maximum stack depth 2
 ---------------------------------------------------------------------------------
 (Depth) Function   	        Calls       Base Space   Used Autos Params    Refs
 ---------------------------------------------------------------------------------
 (3) _mTouch_Scan                                          4     4      0      93
                                              0 BANK0h     4     4      0
                  _mTouch_ChangeMode
            _mTouch_DecimationFilter
                     _mTouch_ScanA_0 *
                     _mTouch_ScanA_1 *
                     _mTouch_ScanB_0 *
                     _mTouch_ScanB_1 *
                  _mTouch_StoreScanA
                  _mTouch_StoreScanB
               _mTouch_WaitForGoDone
 ---------------------------------------------------------------------------------
 (4) _mTouch_WaitForGoDone                                 1     1      0       0
                                              0 COMMON     1     1      0
 ---------------------------------------------------------------------------------
 (4) _mTouch_StoreScanB                                   12    12      0       0
                                              0 COMMON    12    12      0
 ---------------------------------------------------------------------------------
 (4) _mTouch_StoreScanA                                    0     0      0       0
 ---------------------------------------------------------------------------------
 (4) _mTouch_ScanB_1                                       0     0      0       0
 ---------------------------------------------------------------------------------
 (4) _mTouch_ScanB_0                                       0     0      0       0
 ---------------------------------------------------------------------------------
 (4) _mTouch_ScanA_1                                       0     0      0       0
 ---------------------------------------------------------------------------------
 (4) _mTouch_ScanA_0                                       0     0      0       0
 ---------------------------------------------------------------------------------
 (4) _mTouch_DecimationFilter                              7     7      0      93
                                              0 COMMON     7     7      0
 ---------------------------------------------------------------------------------
 (4) _mTouch_ChangeMode                                    1     1      0       0
                                              0 COMMON     1     1      0
 ---------------------------------------------------------------------------------
 Estimated maximum stack depth 4
 ---------------------------------------------------------------------------------

 Call Graph Graphs:

 _main (ROOT)
   _ConfigureOscillator
   _InitApp
     _UART_Init
   _UART_Read
   _UART_Read_No_Block
     _UART_Init
   ___bmul
   ___wmul
   _printf
     _putch

 _mTouch_Scan (ROOT)
   _mTouch_ChangeMode
   _mTouch_DecimationFilter
   _mTouch_ScanA_0 *
   _mTouch_ScanA_1 *
   _mTouch_ScanB_0 *
   _mTouch_ScanB_1 *
   _mTouch_StoreScanA *
   _mTouch_StoreScanB *
   _mTouch_WaitForGoDone *

 Address spaces:
Name               Size   Autos  Total    Cost      Usage
BIGRAM             3F0      0       0       0        0.0%
EEDATA             100      0       0       0        0.0%
NULL                 0      0       0       0        0.0%
CODE                 0      0       0       0        0.0%
BITCOMMON            E      0       0       1        0.0%
BITSFR0              0      0       0       1        0.0%
SFR0                 0      0       0       1        0.0%
COMMON               E      C       E       2      100.0%
BITSFR1              0      0       0       2        0.0%
SFR1                 0      0       0       2        0.0%
BITSFR2              0      0       0       3        0.0%
SFR2                 0      0       0       3        0.0%
STACK                0      0       0       3        0.0%
BITBANK0h           3F      0       0       4        0.0%
BITSFR3              0      0       0       4        0.0%
SFR3                 0      0       0       4        0.0%
BITBANK0l            F      0       0       5        0.0%
BITSFR4              0      0       0       5        0.0%
SFR4                 0      0       0       5        0.0%
BANK0h              3F     1C      36       6       85.7%
BITSFR5              0      0       0       6        0.0%
SFR5                 0      0       0       6        0.0%
BANK0l               F      0       B       7       73.3%
BITSFR6              0      0       0       7        0.0%
SFR6                 0      0       0       7        0.0%
BITBANK1            50      0       0       8        0.0%
BITSFR7              0      0       0       8        0.0%
SFR7                 0      0       0       8        0.0%
BITSFR8              0      0       0       9        0.0%
SFR8                 0      0       0       9        0.0%
BANK1                0      0       0       9        0.0%
BITBANK2            50      0       0      10        0.0%
BITSFR9              0      0       0      10        0.0%
SFR9                 0      0       0      10        0.0%
BITSFR10             0      0       0      11        0.0%
SFR10                0      0       0      11        0.0%
BANK2                0      0       0      11        0.0%
BITBANK3            50      0       0      12        0.0%
BITSFR11             0      0       0      12        0.0%
SFR11                0      0       0      12        0.0%
BANK3               4E      0       0      13        0.0%
BITSFR12             0      0       0      13        0.0%
SFR12                0      0       0      13        0.0%
BITBANK4            50      0       0      14        0.0%
BITSFR13             0      0       0      14        0.0%
SFR13                0      0       0      14        0.0%
BANK4               50      0       0      15        0.0%
BITSFR14             0      0       0      15        0.0%
SFR14                0      0       0      15        0.0%
BITBANK5            50      0       0      16        0.0%
BITSFR15             0      0       0      16        0.0%
SFR15                0      0       0      16        0.0%
BANK5               50      0       0      17        0.0%
BITSFR16             0      0       0      17        0.0%
SFR16                0      0       0      17        0.0%
BITBANK6            50      0       0      18        0.0%
BITSFR17             0      0       0      18        0.0%
SFR17                0      0       0      18        0.0%
BANK6               50      0       0      19        0.0%
BITSFR18             0      0       0      19        0.0%
SFR18                0      0       0      19        0.0%
BITBANK7            50      0       0      20        0.0%
BITSFR19             0      0       0      20        0.0%
SFR19                0      0       0      20        0.0%
BANK7               50      0       0      21        0.0%
BITSFR20             0      0       0      21        0.0%
SFR20                0      0       0      21        0.0%
BITSFR21             0      0       0      22        0.0%
SFR21                0      0       0      22        0.0%
ABS                  0      0      4F      22        0.0%
BITBANK8            50      0       0      23        0.0%
BITSFR22             0      0       0      23        0.0%
SFR22                0      0       0      23        0.0%
BANK8               50      0       0      24        0.0%
BITSFR23             0      0       0      24        0.0%
SFR23                0      0       0      24        0.0%
BITBANK9            50      0       0      25        0.0%
BITSFR24             0      0       0      25        0.0%
SFR24                0      0       0      25        0.0%
BANK9               50      0       0      26        0.0%
BITSFR25             0      0       0      26        0.0%
SFR25                0      0       0      26        0.0%
BITBANK10           50      0       0      27        0.0%
BITSFR26             0      0       0      27        0.0%
SFR26                0      0       0      27        0.0%
BANK10              50      0       0      28        0.0%
BITSFR27             0      0       0      28        0.0%
SFR27                0      0       0      28        0.0%
BITBANK11           50      0       0      29        0.0%
BITSFR28             0      0       0      29        0.0%
SFR28                0      0       0      29        0.0%
BANK11              50      0       0      30        0.0%
BITSFR29             0      0       0      30        0.0%
SFR29                0      0       0      30        0.0%
BITBANK12           30      0       0      31        0.0%
BITSFR30             0      0       0      31        0.0%
SFR30                0      0       0      31        0.0%
BANK12              30      0       0      32        0.0%
BITSFR31             0      0       0      32        0.0%
SFR31                0      0       0      32        0.0%
DATA                 0      0      4F      33        0.0%


Microchip Technology PIC Macro Assembler V1.31 build 56723 
Symbol Table                                                                                   Mon Mar 23 16:34:55 2015

                               _a 2050                                 pc 0002                    ___bmul@product 0037  
      __size_of_mTouch_StoreScanA 000B        __size_of_mTouch_StoreScanB 002A                       __CFG_CP$OFF 0000  
             ___wmul@multiplicand 0037              _mTouch_WaitForGoDone 0129                               LATB 010D  
                             TMR0 0015                               l331 07C7                               l325 016B  
                             l363 015B                               l818 07D8                               _GIE 005F  
                             _RD0 0078                               _PS0 04A8                               _PS1 04A9  
                             _PS2 04AA                      __CFG_CPD$OFF 0000                               u725 07D9  
                             u735 07DE                               _PSA 04AB                               u985 0E7A  
                             u995 0F3C                      __CFG_BORV$LO 0000                               wreg 0009  
               _mTouch_sensorData 0051                              INDF0 0000                              INDF1 0001  
                    __CFG_LVP$OFF 0000                              FSR0H 0005                              FSR1H 0007  
                            FSR0L 0004                              FSR1L 0006                              l2000 0F7E  
                            l2002 0F88                              l2004 0F96                              PORTD 000F  
                            l1724 0111                              l1742 07CD                              l1754 07F0  
                            l1770 07D2                              l1758 07F6                              l1980 0EBC  
                            l1990 0F10                              l1982 0EBF                              l1966 0E4C  
                            l1978 0E64                              l1998 0F26                              TRISB 008D  
                            STR_1 060D                              _BRGH 0CF2                              _CREN 0CEC  
                            _T0CS 04AD                              _T0SE 04AC                              _RCIF 008D  
                            _OERR 0CE9                              _TMR0 0015                              _TMR1 0016  
                            _SPEN 0CEF                              _TRMT 0CF1                              _TXEN 0CF5  
                            _SYNC 0CF4                      __CFG_WRT$OFF 0000                              _main 0E3A  
                            _sine 0201                              _temp 0030                              fsr0h 0005  
                            fsr1h 0007                              fsr0l 0004                              indf0 0000  
                            indf1 0001                              fsr1l 0006                              btemp 007E  
                   __CFG_BOREN$ON 0000                              ltemp 007E                              start 0099  
                            ttemp 007E                              wtemp 007E                     __CFG_IESO$OFF 0000  
               ___bmul@multiplier 0038                   __end_of_InitApp 06F9                             ADCON0 009D  
           ?_mTouch_WaitForGoDone 0070                     __CFG_PLLEN$ON 0000                             STATUS 0003  
                           ?_main 0070                             _BRG16 0CFB                     __CFG_WDTE$OFF 0000  
                           _T1CON 0018                             i1l122 008A                             i1l116 0095  
                           i1l135 012E                             _RCREG 0199                             _SPBRG 019B  
                           _PORTA 000C                             _PORTB 000D                             _PORTC 000E  
                           _PORTD 000F                             _PORTE 0010                             u60_25 064E  
                           u61_25 0663                             u63_25 067D                             u64_25 06B2  
                           _TRISA 008C                             _TRISB 008D                             _TRISC 008E  
                           _TRISD 008F                             _TRISE 0090                             u91_25 000F  
                           u94_25 0052                             u95_25 0065                             _TXREG 019A  
             _ConfigureOscillator 0171                    __CFG_FCMEN$OFF 0000                __size_of_UART_Init 000B  
              __size_of_UART_Read 0006                             _count 0069                             _putch 0159  
                    main@temp_red 0046                             fpbase 0000                             main@x 004B  
                           ltemp0 007E                             ltemp1 0082                             ltemp2 0086  
                           ltemp3 0080                             ttemp0 007E                             ttemp1 0081  
                           ttemp2 0084                             ttemp3 0087                             ttemp4 007F  
                           status 0003                             wtemp0 007E                             wtemp1 0080  
                           wtemp2 0082                             wtemp3 0084                             wtemp4 0086  
                           wtemp5 0088                             wtemp6 007F              ?_ConfigureOscillator 0070  
                  __CFG_MCLRE$OFF 0000                   __initialization 009B          ?_mTouch_DecimationFilter 0070  
                    __end_of_main 1000                      __end_of_sine 0601                            ??_main 003D  
            __end_of_mTouch_ScanA 060B              __end_of_mTouch_ScanB 060D                     main@led_index 004A  
                          _ADRESH 009C                            _ADRESL 009B              __size_of_mTouch_Scan 0095  
                          _ANSELA 018C                            ?_putch 0070                            _ANSELB 018D  
                          _ANSELD 018F                            i1l1662 0684                            i1l1654 066A  
                          i1l1664 068A                            i1l1916 000B                            i1l1942 004F  
         _mTouch_releaseThreshold 0605                            _OSCCON 0099                        __i1fptable 0101  
                          _TMR0IE 005D                            _TMR0IF 005A                            _TMR1IE 0488  
                       ??_InitApp 0035             ??_ConfigureOscillator 0035                    __CFG_PWRTE$OFF 0000  
               __end_of_UART_Init 014E                 __end_of_UART_Read 0171                            ___bmul 07ED  
                          ___wmul 07CF            ??_mTouch_WaitForGoDone 0070                    __CFG_STVREN$ON 0000  
                          _enable 0021                            _printf 010C                     main@temp_blue 0048  
                    __pdataBANK0h 0021                      __pdataBANK0l 006F                            fptable 0100  
                          fptotal 0000                            putch@c 0035        __end_of_UART_Read_No_Block 07CF  
         __end_of__initialization 00BE               ___bmul@multiplicand 0035                    __pcstackBANK0h 0031  
                  __pcstackCOMMON 0070                     __end_of_putch 0163                           ??_putch 0035  
                      __pmaintext 0E3A                           ?___bmul 0035                           ?___wmul 0035  
                      __pintentry 0004                           ?_printf 0036     __end_of_mTouch_pressThreshold 0605  
                      __stringtab 0200                        _led_number 0022                           i1fpbase 0103  
         __size_of_mTouch_ScanA_0 0023           __size_of_mTouch_ScanA_1 0023           __size_of_mTouch_ScanB_0 0023  
         __size_of_mTouch_ScanB_1 0023                 fp__mTouch_ScanA_0 0106                 fp__mTouch_ScanA_1 0104  
               fp__mTouch_ScanB_0 010A                 fp__mTouch_ScanB_1 0108                           _InitApp 06C7  
                    _mTouch_ScanA 0609                      _mTouch_ScanB 060B   __end_of_mTouch_releaseThreshold 0609  
                 __size_of___bmul 0012                        _byte_count 0020                      _mTouch_state 0055  
                 __size_of___wmul 001E                    main@loop_count 0044                           __ptext1 010C  
                         __ptext2 0159                           __ptext3 07CF                           __ptext4 07ED  
                         __ptext5 07AF                           __ptext6 016B                           __ptext7 06C7  
                         __ptext8 0143                           __ptext9 0171                   __size_of_printf 001D  
             __size_of__i1fptable 000B  __size_of_mTouch_DecimationFilter 0082                    main@temp_green 0047  
                         clrloop0 0138              end_of_initialization 00BE               UART_Read_No_Block@i 0037  
                         printf@c 003C                           printf@f 0036                      __pstringtext 0200  
                       _UART_Init 0143                         _UART_Read 016B                        mTouch_Scan 0008  
                __CFG_FOSC$INTOSC 0000                     ??_mTouch_Scan 0031       __end_of_ConfigureOscillator 0175  
                _mTouch_stateVars 005E             _mTouch_currentAcqData 007C                    __end_of___bmul 07FF  
              _UART_Read_No_Block 07AF                     __pidataBANK0h 0175                     __pidataBANK0l 07FF  
                  __end_of___wmul 07ED                        ?_UART_Init 0070                        ?_UART_Read 0070  
   __size_of_mTouch_WaitForGoDone 000E                    __end_of_printf 0129               ?_UART_Read_No_Block 0070  
             start_initialization 009B               __end_of_mTouch_Scan 0099                    _mTouch_ScanA_0 0769  
                  _mTouch_ScanA_1 078C                    _mTouch_ScanB_0 0723                    _mTouch_ScanB_1 0746  
            ??_UART_Read_No_Block 0035                 _mTouch_ChangeMode 0163                          ??___bmul 0036  
                  _mTouch_acqData 0056                          ??___wmul 0039                ?_mTouch_ChangeMode 0070  
                main@recived_byte 0049                    _mTouch_average 004D                          ??_printf 0038  
                     __pbssBANK0h 004D                       __pbssBANK0l 0065           _mTouch_DecimationFilter 0645  
              __end_of__i1fptable 010C               ??_mTouch_ChangeMode 0070                       __pbssCOMMON 007C  
                       ___latbits 0003               __end_of__stringdata 0645            __end_of_mTouch_ScanA_0 078C  
          __end_of_mTouch_ScanA_1 07AF            __end_of_mTouch_ScanB_0 0746            __end_of_mTouch_ScanB_1 0769  
                        ?_InitApp 0070         __end_of_mTouch_ChangeMode 016B                         __pfunctab 0100  
                     ??_UART_Init 0035                       ??_UART_Read 0035                       _mTouch_Scan 0004  
                  __size_of_putch 000A                   ?_mTouch_ScanA_0 0070                   ?_mTouch_ScanA_1 0070  
                 ?_mTouch_ScanB_0 0070                   ?_mTouch_ScanB_1 0070             _mTouch_pressThreshold 0601  
                  ___wmul@product 0039                         clear_ram0 0137                          _GO_nDONE 04E9  
       ??_mTouch_DecimationFilter 0070     mTouch_DecimationFilter@result 0075                        _ADCON1bits 009E  
                     __stringdata 060D                 ___wmul@multiplier 0035                         main@x_268 004C  
                        i1fptable 0101                          i1fptotal 0008        __size_of_mTouch_ChangeMode 0008  
                __size_of_InitApp 0032                     _mTouch_jitter 006F                 _mTouch_StoreScanA 014E  
               _mTouch_StoreScanB 06F9                __end_of__stringtab 0201                ?_mTouch_StoreScanA 0070  
              ?_mTouch_StoreScanB 0070                          __ptext11 0129                          __ptext12 06F9  
                        __ptext13 014E                          __ptext14 0723                          __ptext15 0746  
                        __ptext16 0769                          __ptext17 078C                          __ptext18 0645  
                        __ptext19 0163               ??_mTouch_StoreScanA 0070               ??_mTouch_StoreScanB 0070  
                        _led_data 0065      __end_of_mTouch_WaitForGoDone 0137   __end_of_mTouch_DecimationFilter 06C7  
                   __size_of_main 01C6      __size_of_ConfigureOscillator 0004         __end_of_mTouch_StoreScanA 0159  
       __end_of_mTouch_StoreScanB 0723                 _mTouch_delayCount 006D                          byte_loop 0FAE  
                        intlevel1 0100                 __CFG_CLKOUTEN$OFF 0000       __size_of_UART_Read_No_Block 0020  
                        printf@ap 003B                _mTouch_currentScan 007D                 _mTouch_lastResult 006B  
                ??_mTouch_ScanA_0 0070                  ??_mTouch_ScanA_1 0070                  ??_mTouch_ScanB_0 0070  
                ??_mTouch_ScanB_1 0070                      ?_mTouch_Scan 0070                      _portd_shadow 006E  
